Archive member included to satisfy reference by file (symbol)

/usr/bin/../lib/gcc/arm-none-eabi/12.3.1/../../../../arm-none-eabi/lib/thumb/v7e-m+fp/hard/libstdc++_nano.a(eh_personality.o)
                              ../../Build/m7/m7/main_m7.o (__gxx_personality_v0)
/usr/bin/../lib/gcc/arm-none-eabi/12.3.1/../../../../arm-none-eabi/lib/thumb/v7e-m+fp/hard/libstdc++_nano.a(eh_terminate.o)
                              /usr/bin/../lib/gcc/arm-none-eabi/12.3.1/../../../../arm-none-eabi/lib/thumb/v7e-m+fp/hard/libstdc++_nano.a(eh_personality.o) (std::terminate())
/usr/bin/../lib/gcc/arm-none-eabi/12.3.1/../../../../arm-none-eabi/lib/thumb/v7e-m+fp/hard/libstdc++_nano.a(eh_unex_handler.o)
                              /usr/bin/../lib/gcc/arm-none-eabi/12.3.1/../../../../arm-none-eabi/lib/thumb/v7e-m+fp/hard/libstdc++_nano.a(eh_terminate.o) (__cxxabiv1::__unexpected_handler)
/usr/bin/../lib/gcc/arm-none-eabi/12.3.1/../../../../arm-none-eabi/lib/thumb/v7e-m+fp/hard/libstdc++_nano.a(eh_arm.o)
                              /usr/bin/../lib/gcc/arm-none-eabi/12.3.1/../../../../arm-none-eabi/lib/thumb/v7e-m+fp/hard/libstdc++_nano.a(eh_personality.o) (__cxa_type_match)
/usr/bin/../lib/gcc/arm-none-eabi/12.3.1/../../../../arm-none-eabi/lib/thumb/v7e-m+fp/hard/libstdc++_nano.a(eh_call.o)
                              /usr/bin/../lib/gcc/arm-none-eabi/12.3.1/../../../../arm-none-eabi/lib/thumb/v7e-m+fp/hard/libstdc++_nano.a(eh_personality.o) (__cxa_call_terminate)
/usr/bin/../lib/gcc/arm-none-eabi/12.3.1/../../../../arm-none-eabi/lib/thumb/v7e-m+fp/hard/libstdc++_nano.a(eh_catch.o)
                              /usr/bin/../lib/gcc/arm-none-eabi/12.3.1/../../../../arm-none-eabi/lib/thumb/v7e-m+fp/hard/libstdc++_nano.a(eh_call.o) (__cxa_begin_catch)
/usr/bin/../lib/gcc/arm-none-eabi/12.3.1/../../../../arm-none-eabi/lib/thumb/v7e-m+fp/hard/libstdc++_nano.a(eh_exception.o)
                              /usr/bin/../lib/gcc/arm-none-eabi/12.3.1/../../../../arm-none-eabi/lib/thumb/v7e-m+fp/hard/libstdc++_nano.a(eh_arm.o) (typeinfo for __cxxabiv1::__forced_unwind)
/usr/bin/../lib/gcc/arm-none-eabi/12.3.1/../../../../arm-none-eabi/lib/thumb/v7e-m+fp/hard/libstdc++_nano.a(eh_globals.o)
                              /usr/bin/../lib/gcc/arm-none-eabi/12.3.1/../../../../arm-none-eabi/lib/thumb/v7e-m+fp/hard/libstdc++_nano.a(eh_catch.o) (__cxa_get_globals_fast)
/usr/bin/../lib/gcc/arm-none-eabi/12.3.1/../../../../arm-none-eabi/lib/thumb/v7e-m+fp/hard/libstdc++_nano.a(eh_term_handler.o)
                              /usr/bin/../lib/gcc/arm-none-eabi/12.3.1/../../../../arm-none-eabi/lib/thumb/v7e-m+fp/hard/libstdc++_nano.a(eh_terminate.o) (__cxxabiv1::__terminate_handler)
/usr/bin/../lib/gcc/arm-none-eabi/12.3.1/../../../../arm-none-eabi/lib/thumb/v7e-m+fp/hard/libstdc++_nano.a(si_class_type_info.o)
                              /usr/bin/../lib/gcc/arm-none-eabi/12.3.1/../../../../arm-none-eabi/lib/thumb/v7e-m+fp/hard/libstdc++_nano.a(eh_exception.o) (vtable for __cxxabiv1::__si_class_type_info)
/usr/bin/../lib/gcc/arm-none-eabi/12.3.1/../../../../arm-none-eabi/lib/thumb/v7e-m+fp/hard/libstdc++_nano.a(tinfo.o)
                              /usr/bin/../lib/gcc/arm-none-eabi/12.3.1/../../../../arm-none-eabi/lib/thumb/v7e-m+fp/hard/libstdc++_nano.a(si_class_type_info.o) (std::type_info::__is_pointer_p() const)
/usr/bin/../lib/gcc/arm-none-eabi/12.3.1/../../../../arm-none-eabi/lib/thumb/v7e-m+fp/hard/libstdc++_nano.a(atexit_arm.o)
                              /usr/bin/../lib/gcc/arm-none-eabi/12.3.1/../../../../arm-none-eabi/lib/thumb/v7e-m+fp/hard/libstdc++_nano.a(eh_globals.o) (__aeabi_atexit)
/usr/bin/../lib/gcc/arm-none-eabi/12.3.1/../../../../arm-none-eabi/lib/thumb/v7e-m+fp/hard/libstdc++_nano.a(class_type_info.o)
                              /usr/bin/../lib/gcc/arm-none-eabi/12.3.1/../../../../arm-none-eabi/lib/thumb/v7e-m+fp/hard/libstdc++_nano.a(si_class_type_info.o) (__cxxabiv1::__class_type_info::__do_upcast(__cxxabiv1::__class_type_info const*, void**) const)
/usr/bin/../lib/gcc/arm-none-eabi/12.3.1/../../../../arm-none-eabi/lib/thumb/v7e-m+fp/hard/libstdc++_nano.a(del_ops.o)
                              /usr/bin/../lib/gcc/arm-none-eabi/12.3.1/../../../../arm-none-eabi/lib/thumb/v7e-m+fp/hard/libstdc++_nano.a(eh_exception.o) (operator delete(void*, unsigned int))
/usr/bin/../lib/gcc/arm-none-eabi/12.3.1/../../../../arm-none-eabi/lib/thumb/v7e-m+fp/hard/libstdc++_nano.a(del_op.o)
                              /usr/bin/../lib/gcc/arm-none-eabi/12.3.1/../../../../arm-none-eabi/lib/thumb/v7e-m+fp/hard/libstdc++_nano.a(del_ops.o) (operator delete(void*))
/usr/bin/../lib/gcc/arm-none-eabi/12.3.1/../../../../arm-none-eabi/lib/thumb/v7e-m+fp/hard/libc_nano.a(libc_a-exit.o)
                              /usr/bin/../lib/gcc/arm-none-eabi/12.3.1/../../../../arm-none-eabi/lib/thumb/v7e-m+fp/hard/crt0.o (exit)
/usr/bin/../lib/gcc/arm-none-eabi/12.3.1/../../../../arm-none-eabi/lib/thumb/v7e-m+fp/hard/libc_nano.a(libc_a-init.o)
                              /usr/bin/../lib/gcc/arm-none-eabi/12.3.1/../../../../arm-none-eabi/lib/thumb/v7e-m+fp/hard/crt0.o (__libc_init_array)
/usr/bin/../lib/gcc/arm-none-eabi/12.3.1/../../../../arm-none-eabi/lib/thumb/v7e-m+fp/hard/libc_nano.a(libc_a-strcmp.o)
                              /usr/bin/../lib/gcc/arm-none-eabi/12.3.1/../../../../arm-none-eabi/lib/thumb/v7e-m+fp/hard/libstdc++_nano.a(tinfo.o) (strcmp)
/usr/bin/../lib/gcc/arm-none-eabi/12.3.1/../../../../arm-none-eabi/lib/thumb/v7e-m+fp/hard/libc_nano.a(libc_a-malloc.o)
                              /usr/bin/../lib/gcc/arm-none-eabi/12.3.1/../../../../arm-none-eabi/lib/thumb/v7e-m+fp/hard/libstdc++_nano.a(del_op.o) (free)
/usr/bin/../lib/gcc/arm-none-eabi/12.3.1/../../../../arm-none-eabi/lib/thumb/v7e-m+fp/hard/libc_nano.a(libc_a-mallocr.o)
                              /usr/bin/../lib/gcc/arm-none-eabi/12.3.1/../../../../arm-none-eabi/lib/thumb/v7e-m+fp/hard/libc_nano.a(libc_a-malloc.o) (_malloc_r)
/usr/bin/../lib/gcc/arm-none-eabi/12.3.1/../../../../arm-none-eabi/lib/thumb/v7e-m+fp/hard/libc_nano.a(libc_a-abort.o)
                              /usr/bin/../lib/gcc/arm-none-eabi/12.3.1/../../../../arm-none-eabi/lib/thumb/v7e-m+fp/hard/libstdc++_nano.a(eh_personality.o) (abort)
/usr/bin/../lib/gcc/arm-none-eabi/12.3.1/../../../../arm-none-eabi/lib/thumb/v7e-m+fp/hard/libc_nano.a(libc_a-cxa_atexit.o)
                              /usr/bin/../lib/gcc/arm-none-eabi/12.3.1/../../../../arm-none-eabi/lib/thumb/v7e-m+fp/hard/libstdc++_nano.a(atexit_arm.o) (__cxa_atexit)
/usr/bin/../lib/gcc/arm-none-eabi/12.3.1/../../../../arm-none-eabi/lib/thumb/v7e-m+fp/hard/libc_nano.a(libc_a-findfp.o)
                              /usr/bin/../lib/gcc/arm-none-eabi/12.3.1/../../../../arm-none-eabi/lib/thumb/v7e-m+fp/hard/libc_nano.a(libc_a-exit.o) (__stdio_exit_handler)
/usr/bin/../lib/gcc/arm-none-eabi/12.3.1/../../../../arm-none-eabi/lib/thumb/v7e-m+fp/hard/libc_nano.a(libc_a-stdio.o)
                              /usr/bin/../lib/gcc/arm-none-eabi/12.3.1/../../../../arm-none-eabi/lib/thumb/v7e-m+fp/hard/libc_nano.a(libc_a-findfp.o) (__sread)
/usr/bin/../lib/gcc/arm-none-eabi/12.3.1/../../../../arm-none-eabi/lib/thumb/v7e-m+fp/hard/libc_nano.a(libc_a-mlock.o)
                              /usr/bin/../lib/gcc/arm-none-eabi/12.3.1/../../../../arm-none-eabi/lib/thumb/v7e-m+fp/hard/libc_nano.a(libc_a-mallocr.o) (__malloc_lock)
/usr/bin/../lib/gcc/arm-none-eabi/12.3.1/../../../../arm-none-eabi/lib/thumb/v7e-m+fp/hard/libc_nano.a(libc_a-on_exit_args.o)
                              /usr/bin/../lib/gcc/arm-none-eabi/12.3.1/../../../../arm-none-eabi/lib/thumb/v7e-m+fp/hard/libc_nano.a(libc_a-cxa_atexit.o) (__on_exit_args)
/usr/bin/../lib/gcc/arm-none-eabi/12.3.1/../../../../arm-none-eabi/lib/thumb/v7e-m+fp/hard/libc_nano.a(libc_a-sbrkr.o)
                              /usr/bin/../lib/gcc/arm-none-eabi/12.3.1/../../../../arm-none-eabi/lib/thumb/v7e-m+fp/hard/libc_nano.a(libc_a-mallocr.o) (_sbrk_r)
/usr/bin/../lib/gcc/arm-none-eabi/12.3.1/../../../../arm-none-eabi/lib/thumb/v7e-m+fp/hard/libc_nano.a(libc_a-writer.o)
                              /usr/bin/../lib/gcc/arm-none-eabi/12.3.1/../../../../arm-none-eabi/lib/thumb/v7e-m+fp/hard/libc_nano.a(libc_a-stdio.o) (_write_r)
/usr/bin/../lib/gcc/arm-none-eabi/12.3.1/../../../../arm-none-eabi/lib/thumb/v7e-m+fp/hard/libc_nano.a(libc_a-errno.o)
                              ../../Build/m7/Common/sysmem.o (__errno)
/usr/bin/../lib/gcc/arm-none-eabi/12.3.1/../../../../arm-none-eabi/lib/thumb/v7e-m+fp/hard/libc_nano.a(libc_a-fwalk.o)
                              /usr/bin/../lib/gcc/arm-none-eabi/12.3.1/../../../../arm-none-eabi/lib/thumb/v7e-m+fp/hard/libc_nano.a(libc_a-findfp.o) (_fwalk_sglue)
/usr/bin/../lib/gcc/arm-none-eabi/12.3.1/../../../../arm-none-eabi/lib/thumb/v7e-m+fp/hard/libc_nano.a(libc_a-memset.o)
                              /usr/bin/../lib/gcc/arm-none-eabi/12.3.1/../../../../arm-none-eabi/lib/thumb/v7e-m+fp/hard/crt0.o (memset)
/usr/bin/../lib/gcc/arm-none-eabi/12.3.1/../../../../arm-none-eabi/lib/thumb/v7e-m+fp/hard/libc_nano.a(libc_a-freer.o)
                              /usr/bin/../lib/gcc/arm-none-eabi/12.3.1/../../../../arm-none-eabi/lib/thumb/v7e-m+fp/hard/libc_nano.a(libc_a-malloc.o) (_free_r)
/usr/bin/../lib/gcc/arm-none-eabi/12.3.1/../../../../arm-none-eabi/lib/thumb/v7e-m+fp/hard/libc_nano.a(libc_a-lock.o)
                              /usr/bin/../lib/gcc/arm-none-eabi/12.3.1/../../../../arm-none-eabi/lib/thumb/v7e-m+fp/hard/libc_nano.a(libc_a-findfp.o) (__retarget_lock_init_recursive)
/usr/bin/../lib/gcc/arm-none-eabi/12.3.1/../../../../arm-none-eabi/lib/thumb/v7e-m+fp/hard/libc_nano.a(libc_a-closer.o)
                              /usr/bin/../lib/gcc/arm-none-eabi/12.3.1/../../../../arm-none-eabi/lib/thumb/v7e-m+fp/hard/libc_nano.a(libc_a-stdio.o) (_close_r)
/usr/bin/../lib/gcc/arm-none-eabi/12.3.1/../../../../arm-none-eabi/lib/thumb/v7e-m+fp/hard/libc_nano.a(libc_a-reent.o)
                              /usr/bin/../lib/gcc/arm-none-eabi/12.3.1/../../../../arm-none-eabi/lib/thumb/v7e-m+fp/hard/libc_nano.a(libc_a-sbrkr.o) (errno)
/usr/bin/../lib/gcc/arm-none-eabi/12.3.1/../../../../arm-none-eabi/lib/thumb/v7e-m+fp/hard/libc_nano.a(libc_a-impure.o)
                              /usr/bin/../lib/gcc/arm-none-eabi/12.3.1/../../../../arm-none-eabi/lib/thumb/v7e-m+fp/hard/libc_nano.a(libc_a-malloc.o) (_impure_ptr)
/usr/bin/../lib/gcc/arm-none-eabi/12.3.1/../../../../arm-none-eabi/lib/thumb/v7e-m+fp/hard/libc_nano.a(libc_a-fflush.o)
                              /usr/bin/../lib/gcc/arm-none-eabi/12.3.1/../../../../arm-none-eabi/lib/thumb/v7e-m+fp/hard/libc_nano.a(libc_a-findfp.o) (_fflush_r)
/usr/bin/../lib/gcc/arm-none-eabi/12.3.1/../../../../arm-none-eabi/lib/thumb/v7e-m+fp/hard/libc_nano.a(libc_a-signal.o)
                              /usr/bin/../lib/gcc/arm-none-eabi/12.3.1/../../../../arm-none-eabi/lib/thumb/v7e-m+fp/hard/libc_nano.a(libc_a-abort.o) (raise)
/usr/bin/../lib/gcc/arm-none-eabi/12.3.1/../../../../arm-none-eabi/lib/thumb/v7e-m+fp/hard/libc_nano.a(libc_a-lseekr.o)
                              /usr/bin/../lib/gcc/arm-none-eabi/12.3.1/../../../../arm-none-eabi/lib/thumb/v7e-m+fp/hard/libc_nano.a(libc_a-stdio.o) (_lseek_r)
/usr/bin/../lib/gcc/arm-none-eabi/12.3.1/../../../../arm-none-eabi/lib/thumb/v7e-m+fp/hard/libc_nano.a(libc_a-readr.o)
                              /usr/bin/../lib/gcc/arm-none-eabi/12.3.1/../../../../arm-none-eabi/lib/thumb/v7e-m+fp/hard/libc_nano.a(libc_a-stdio.o) (_read_r)
/usr/bin/../lib/gcc/arm-none-eabi/12.3.1/../../../../arm-none-eabi/lib/thumb/v7e-m+fp/hard/libc_nano.a(libc_a-signalr.o)
                              /usr/bin/../lib/gcc/arm-none-eabi/12.3.1/../../../../arm-none-eabi/lib/thumb/v7e-m+fp/hard/libc_nano.a(libc_a-signal.o) (_kill_r)
/usr/bin/../lib/gcc/arm-none-eabi/12.3.1/thumb/v7e-m+fp/hard/libgcc.a(unwind-arm.o)
                              ../../Build/m7/Common/syscalls.o (__aeabi_unwind_cpp_pr0)
/usr/bin/../lib/gcc/arm-none-eabi/12.3.1/thumb/v7e-m+fp/hard/libgcc.a(libunwind.o)
                              /usr/bin/../lib/gcc/arm-none-eabi/12.3.1/thumb/v7e-m+fp/hard/libgcc.a(unwind-arm.o) (restore_core_regs)
/usr/bin/../lib/gcc/arm-none-eabi/12.3.1/thumb/v7e-m+fp/hard/libgcc.a(pr-support.o)
                              /usr/bin/../lib/gcc/arm-none-eabi/12.3.1/thumb/v7e-m+fp/hard/libgcc.a(unwind-arm.o) (__gnu_unwind_execute)
/usr/bin/../lib/gcc/arm-none-eabi/12.3.1/../../../../arm-none-eabi/lib/thumb/v7e-m+fp/hard/libc_nano.a(libc_a-memcpy-stub.o)
                              /usr/bin/../lib/gcc/arm-none-eabi/12.3.1/thumb/v7e-m+fp/hard/libgcc.a(unwind-arm.o) (memcpy)

Discarded input sections

 .group         0x00000000       0x18 ../../Build/m7/m7/main_m7.o
 .group         0x00000000       0x18 ../../Build/m7/m7/main_m7.o
 .group         0x00000000       0x18 ../../Build/m7/m7/main_m7.o
 .group         0x00000000       0x1c ../../Build/m7/m7/main_m7.o
 .group         0x00000000       0x18 ../../Build/m7/m7/main_m7.o
 .group         0x00000000       0x18 ../../Build/m7/m7/main_m7.o
 .group         0x00000000       0x14 ../../Build/m7/m7/main_m7.o
 .group         0x00000000       0x14 ../../Build/m7/m7/main_m7.o
 .group         0x00000000       0x18 ../../Build/m7/m7/main_m7.o
 .group         0x00000000        0xc ../../Build/m7/m7/main_m7.o
 .group         0x00000000        0xc ../../Build/m7/m7/main_m7.o
 .group         0x00000000       0x18 ../../Build/m7/m7/main_m7.o
 .group         0x00000000       0x14 ../../Build/m7/m7/main_m7.o
 .group         0x00000000        0xc ../../Build/m7/m7/main_m7.o
 .group         0x00000000        0xc ../../Build/m7/m7/main_m7.o
 .group         0x00000000        0xc ../../Build/m7/m7/main_m7.o
 .group         0x00000000        0xc ../../Build/m7/m7/main_m7.o
 .group         0x00000000        0xc ../../Build/m7/m7/main_m7.o
 .group         0x00000000        0xc ../../Build/m7/m7/main_m7.o
 .group         0x00000000        0xc ../../Build/m7/m7/main_m7.o
 .group         0x00000000        0xc ../../Build/m7/m7/main_m7.o
 .group         0x00000000        0xc ../../Build/m7/m7/main_m7.o
 .group         0x00000000        0xc ../../Build/m7/m7/main_m7.o
 .group         0x00000000        0xc ../../Build/m7/m7/main_m7.o
 .group         0x00000000        0xc ../../Build/m7/m7/main_m7.o
 .group         0x00000000        0xc ../../Build/m7/m7/main_m7.o
 .group         0x00000000        0xc ../../Build/m7/m7/main_m7.o
 .group         0x00000000        0xc ../../Build/m7/m7/main_m7.o
 .group         0x00000000        0xc ../../Build/m7/m7/main_m7.o
 .group         0x00000000        0xc ../../Build/m7/m7/main_m7.o
 .group         0x00000000        0xc ../../Build/m7/m7/main_m7.o
 .group         0x00000000        0xc ../../Build/m7/m7/main_m7.o
 .group         0x00000000        0xc ../../Build/m7/m7/main_m7.o
 .group         0x00000000        0xc ../../Build/m7/m7/main_m7.o
 .group         0x00000000        0xc ../../Build/m7/m7/main_m7.o
 .group         0x00000000        0xc ../../Build/m7/m7/main_m7.o
 .group         0x00000000        0xc ../../Build/m7/m7/main_m7.o
 .group         0x00000000        0xc ../../Build/m7/m7/main_m7.o
 .group         0x00000000        0xc ../../Build/m7/m7/main_m7.o
 .group         0x00000000        0xc ../../Build/m7/m7/main_m7.o
 .group         0x00000000        0xc ../../Build/m7/m7/main_m7.o
 .group         0x00000000        0xc ../../Build/m7/m7/main_m7.o
 .group         0x00000000        0xc ../../Build/m7/m7/main_m7.o
 .group         0x00000000        0xc ../../Build/m7/m7/main_m7.o
 .group         0x00000000        0xc ../../Build/m7/m7/main_m7.o
 .group         0x00000000        0xc ../../Build/m7/m7/main_m7.o
 .group         0x00000000        0xc ../../Build/m7/m7/main_m7.o
 .group         0x00000000        0xc ../../Build/m7/m7/main_m7.o
 .group         0x00000000        0xc ../../Build/m7/m7/main_m7.o
 .group         0x00000000        0xc ../../Build/m7/m7/main_m7.o
 .group         0x00000000        0xc ../../Build/m7/m7/main_m7.o
 .group         0x00000000        0xc ../../Build/m7/m7/main_m7.o
 .group         0x00000000        0xc ../../Build/m7/m7/main_m7.o
 .group         0x00000000        0xc ../../Build/m7/m7/main_m7.o
 .group         0x00000000        0xc ../../Build/m7/m7/main_m7.o
 .group         0x00000000        0xc ../../Build/m7/m7/main_m7.o
 .group         0x00000000        0xc ../../Build/m7/m7/main_m7.o
 .group         0x00000000        0xc ../../Build/m7/m7/main_m7.o
 .group         0x00000000        0xc ../../Build/m7/m7/main_m7.o
 .group         0x00000000        0xc ../../Build/m7/m7/main_m7.o
 .group         0x00000000        0xc ../../Build/m7/m7/main_m7.o
 .group         0x00000000        0xc ../../Build/m7/m7/main_m7.o
 .group         0x00000000        0xc ../../Build/m7/m7/main_m7.o
 .group         0x00000000        0xc ../../Build/m7/m7/main_m7.o
 .group         0x00000000        0xc ../../Build/m7/m7/main_m7.o
 .group         0x00000000        0xc ../../Build/m7/m7/main_m7.o
 .group         0x00000000        0xc ../../Build/m7/m7/main_m7.o
 .group         0x00000000        0xc ../../Build/m7/m7/main_m7.o
 .group         0x00000000        0xc ../../Build/m7/m7/main_m7.o
 .group         0x00000000        0xc ../../Build/m7/m7/main_m7.o
 .group         0x00000000        0xc ../../Build/m7/m7/main_m7.o
 .group         0x00000000        0xc ../../Build/m7/m7/main_m7.o
 .group         0x00000000        0xc ../../Build/m7/m7/main_m7.o
 .group         0x00000000        0xc ../../Build/m7/m7/main_m7.o
 .group         0x00000000        0xc ../../Build/m7/m7/main_m7.o
 .group         0x00000000        0xc ../../Build/m7/m7/main_m7.o
 .group         0x00000000        0xc ../../Build/m7/m7/main_m7.o
 .group         0x00000000        0xc ../../Build/m7/m7/main_m7.o
 .group         0x00000000        0xc ../../Build/m7/m7/main_m7.o
 .group         0x00000000        0xc ../../Build/m7/m7/main_m7.o
 .group         0x00000000        0xc ../../Build/m7/m7/main_m7.o
 .group         0x00000000        0xc ../../Build/m7/m7/main_m7.o
 .group         0x00000000        0xc ../../Build/m7/m7/main_m7.o
 .group         0x00000000        0xc ../../Build/m7/m7/main_m7.o
 .group         0x00000000        0xc ../../Build/m7/m7/main_m7.o
 .group         0x00000000        0xc ../../Build/m7/m7/main_m7.o
 .group         0x00000000        0xc ../../Build/m7/m7/main_m7.o
 .group         0x00000000        0xc ../../Build/m7/m7/main_m7.o
 .group         0x00000000        0xc ../../Build/m7/m7/main_m7.o
 .group         0x00000000        0xc ../../Build/m7/m7/main_m7.o
 .group         0x00000000        0xc ../../Build/m7/m7/main_m7.o
 .group         0x00000000        0xc ../../Build/m7/m7/main_m7.o
 .group         0x00000000        0xc ../../Build/m7/m7/main_m7.o
 .group         0x00000000        0xc ../../Build/m7/m7/main_m7.o
 .group         0x00000000        0xc ../../Build/m7/m7/main_m7.o
 .group         0x00000000        0xc ../../Build/m7/m7/main_m7.o
 .group         0x00000000        0xc ../../Build/m7/m7/main_m7.o
 .group         0x00000000        0xc ../../Build/m7/m7/main_m7.o
 .group         0x00000000        0xc ../../Build/m7/m7/main_m7.o
 .group         0x00000000        0xc ../../Build/m7/m7/main_m7.o
 .group         0x00000000        0xc ../../Build/m7/m7/main_m7.o
 .group         0x00000000        0xc ../../Build/m7/m7/main_m7.o
 .group         0x00000000        0xc ../../Build/m7/m7/main_m7.o
 .group         0x00000000        0xc ../../Build/m7/m7/main_m7.o
 .group         0x00000000        0xc ../../Build/m7/m7/main_m7.o
 .group         0x00000000        0xc ../../Build/m7/m7/main_m7.o
 .group         0x00000000        0xc ../../Build/m7/m7/main_m7.o
 .group         0x00000000        0xc ../../Build/m7/m7/main_m7.o
 .group         0x00000000        0xc ../../Build/m7/m7/main_m7.o
 .group         0x00000000        0xc ../../Build/m7/m7/main_m7.o
 .group         0x00000000        0xc ../../Build/m7/m7/main_m7.o
 .group         0x00000000        0xc ../../Build/m7/m7/main_m7.o
 .group         0x00000000        0xc ../../Build/m7/m7/main_m7.o
 .group         0x00000000        0xc ../../Build/m7/m7/main_m7.o
 .group         0x00000000        0xc ../../Build/m7/m7/main_m7.o
 .group         0x00000000        0xc ../../Build/m7/m7/main_m7.o
 .group         0x00000000        0xc ../../Build/m7/m7/main_m7.o
 .group         0x00000000        0xc ../../Build/m7/m7/main_m7.o
 .group         0x00000000        0xc ../../Build/m7/m7/main_m7.o
 .group         0x00000000        0xc ../../Build/m7/m7/main_m7.o
 .group         0x00000000        0xc ../../Build/m7/m7/main_m7.o
 .group         0x00000000        0xc ../../Build/m7/m7/main_m7.o
 .group         0x00000000        0xc ../../Build/m7/m7/main_m7.o
 .group         0x00000000        0xc ../../Build/m7/m7/main_m7.o
 .group         0x00000000        0xc ../../Build/m7/m7/main_m7.o
 .group         0x00000000        0xc ../../Build/m7/m7/main_m7.o
 .group         0x00000000        0xc ../../Build/m7/m7/main_m7.o
 .group         0x00000000        0xc ../../Build/m7/m7/main_m7.o
 .group         0x00000000        0xc ../../Build/m7/m7/main_m7.o
 .group         0x00000000        0xc ../../Build/m7/m7/main_m7.o
 .group         0x00000000        0xc ../../Build/m7/Common/sysmem.o
 .group         0x00000000        0xc ../../Build/m7/Common/sysmem.o
 .group         0x00000000        0xc ../../Build/m7/Common/sysmem.o
 .group         0x00000000        0xc ../../Build/m7/Common/sysmem.o
 .group         0x00000000        0xc ../../Build/m7/Common/sysmem.o
 .group         0x00000000        0xc ../../Build/m7/Common/sysmem.o
 .group         0x00000000        0xc ../../Build/m7/Common/sysmem.o
 .group         0x00000000        0xc ../../Build/m7/Common/sysmem.o
 .group         0x00000000        0xc ../../Build/m7/Common/sysmem.o
 .group         0x00000000        0xc ../../Build/m7/Common/sysmem.o
 .group         0x00000000        0xc ../../Build/m7/Common/sysmem.o
 .group         0x00000000        0xc ../../Build/m7/Common/sysmem.o
 .group         0x00000000        0xc ../../Build/m7/Common/sysmem.o
 .group         0x00000000        0xc ../../Build/m7/Common/sysmem.o
 .group         0x00000000        0xc ../../Build/m7/Common/sysmem.o
 .group         0x00000000        0xc ../../Build/m7/Common/sysmem.o
 .group         0x00000000        0xc ../../Build/m7/Common/sysmem.o
 .group         0x00000000        0xc ../../Build/m7/Common/sysmem.o
 .group         0x00000000        0xc ../../Build/m7/Common/sysmem.o
 .group         0x00000000        0xc ../../Build/m7/Common/sysmem.o
 .group         0x00000000        0xc ../../Build/m7/Common/sysmem.o
 .group         0x00000000        0xc ../../Build/m7/Common/sysmem.o
 .debug_macro   0x00000000       0x10 ../../Build/m7/Common/sysmem.o
 .debug_macro   0x00000000       0x22 ../../Build/m7/Common/sysmem.o
 .debug_macro   0x00000000       0x2a ../../Build/m7/Common/sysmem.o
 .debug_macro   0x00000000       0x43 ../../Build/m7/Common/sysmem.o
 .debug_macro   0x00000000       0x16 ../../Build/m7/Common/sysmem.o
 .debug_macro   0x00000000       0x34 ../../Build/m7/Common/sysmem.o
 .debug_macro   0x00000000       0x10 ../../Build/m7/Common/sysmem.o
 .debug_macro   0x00000000       0x58 ../../Build/m7/Common/sysmem.o
 .debug_macro   0x00000000       0x8e ../../Build/m7/Common/sysmem.o
 .debug_macro   0x00000000      0x177 ../../Build/m7/Common/sysmem.o
 .debug_macro   0x00000000      0x103 ../../Build/m7/Common/sysmem.o
 .debug_macro   0x00000000       0x6a ../../Build/m7/Common/sysmem.o
 .debug_macro   0x00000000      0x1df ../../Build/m7/Common/sysmem.o
 .group         0x00000000        0xc ../../Build/m7/Common/syscalls.o
 .group         0x00000000        0xc ../../Build/m7/Common/syscalls.o
 .group         0x00000000        0xc ../../Build/m7/Common/syscalls.o
 .group         0x00000000        0xc ../../Build/m7/Common/syscalls.o
 .group         0x00000000        0xc ../../Build/m7/Common/syscalls.o
 .group         0x00000000        0xc ../../Build/m7/Common/syscalls.o
 .group         0x00000000        0xc ../../Build/m7/Common/syscalls.o
 .group         0x00000000        0xc ../../Build/m7/Common/syscalls.o
 .group         0x00000000        0xc ../../Build/m7/Common/syscalls.o
 .group         0x00000000        0xc ../../Build/m7/Common/syscalls.o
 .group         0x00000000        0xc ../../Build/m7/Common/syscalls.o
 .group         0x00000000        0xc ../../Build/m7/Common/syscalls.o
 .group         0x00000000        0xc ../../Build/m7/Common/syscalls.o
 .group         0x00000000        0xc ../../Build/m7/Common/syscalls.o
 .group         0x00000000        0xc ../../Build/m7/Common/syscalls.o
 .group         0x00000000        0xc ../../Build/m7/Common/syscalls.o
 .group         0x00000000        0xc ../../Build/m7/Common/syscalls.o
 .group         0x00000000        0xc ../../Build/m7/Common/syscalls.o
 .group         0x00000000        0xc ../../Build/m7/Common/syscalls.o
 .group         0x00000000        0xc ../../Build/m7/Common/syscalls.o
 .group         0x00000000        0xc ../../Build/m7/Common/syscalls.o
 .group         0x00000000        0xc ../../Build/m7/Common/syscalls.o
 .group         0x00000000        0xc ../../Build/m7/Common/syscalls.o
 .group         0x00000000        0xc ../../Build/m7/Common/syscalls.o
 .group         0x00000000        0xc ../../Build/m7/Common/syscalls.o
 .group         0x00000000        0xc ../../Build/m7/Common/syscalls.o
 .group         0x00000000        0xc ../../Build/m7/Common/syscalls.o
 .group         0x00000000        0xc ../../Build/m7/Common/syscalls.o
 .group         0x00000000        0xc ../../Build/m7/Common/syscalls.o
 .group         0x00000000        0xc ../../Build/m7/Common/syscalls.o
 .group         0x00000000        0xc ../../Build/m7/Common/syscalls.o
 .group         0x00000000        0xc ../../Build/m7/Common/syscalls.o
 .group         0x00000000        0xc ../../Build/m7/Common/syscalls.o
 .group         0x00000000        0xc ../../Build/m7/Common/syscalls.o
 .group         0x00000000        0xc ../../Build/m7/Common/syscalls.o
 .group         0x00000000        0xc ../../Build/m7/Common/syscalls.o
 .group         0x00000000        0xc ../../Build/m7/Common/syscalls.o
 .group         0x00000000        0xc ../../Build/m7/Common/syscalls.o
 .group         0x00000000        0xc ../../Build/m7/Common/syscalls.o
 .group         0x00000000        0xc ../../Build/m7/Common/syscalls.o
 .group         0x00000000        0xc ../../Build/m7/Common/syscalls.o
 .group         0x00000000        0xc ../../Build/m7/Common/syscalls.o
 .group         0x00000000        0xc ../../Build/m7/Common/syscalls.o
 .group         0x00000000        0xc ../../Build/m7/Common/syscalls.o
 .group         0x00000000        0xc ../../Build/m7/Common/syscalls.o
 .group         0x00000000        0xc ../../Build/m7/Common/syscalls.o
 .group         0x00000000        0xc ../../Build/m7/Common/syscalls.o
 .group         0x00000000        0xc ../../Build/m7/Common/syscalls.o
 .group         0x00000000        0xc ../../Build/m7/Common/syscalls.o
 .debug_macro   0x00000000      0xaa8 ../../Build/m7/Common/syscalls.o
 .debug_macro   0x00000000       0x22 ../../Build/m7/Common/syscalls.o
 .debug_macro   0x00000000       0x5b ../../Build/m7/Common/syscalls.o
 .debug_macro   0x00000000       0x2a ../../Build/m7/Common/syscalls.o
 .debug_macro   0x00000000       0x94 ../../Build/m7/Common/syscalls.o
 .debug_macro   0x00000000       0x43 ../../Build/m7/Common/syscalls.o
 .debug_macro   0x00000000       0x34 ../../Build/m7/Common/syscalls.o
 .debug_macro   0x00000000       0x57 ../../Build/m7/Common/syscalls.o
 .debug_macro   0x00000000      0x189 ../../Build/m7/Common/syscalls.o
 .debug_macro   0x00000000       0x16 ../../Build/m7/Common/syscalls.o
 .debug_macro   0x00000000       0x43 ../../Build/m7/Common/syscalls.o
 .debug_macro   0x00000000       0x34 ../../Build/m7/Common/syscalls.o
 .debug_macro   0x00000000       0x10 ../../Build/m7/Common/syscalls.o
 .debug_macro   0x00000000       0x58 ../../Build/m7/Common/syscalls.o
 .debug_macro   0x00000000       0x8e ../../Build/m7/Common/syscalls.o
 .debug_macro   0x00000000       0x1c ../../Build/m7/Common/syscalls.o
 .debug_macro   0x00000000      0x177 ../../Build/m7/Common/syscalls.o
 .debug_macro   0x00000000       0x6a ../../Build/m7/Common/syscalls.o
 .debug_macro   0x00000000       0x16 ../../Build/m7/Common/syscalls.o
 .debug_macro   0x00000000       0x16 ../../Build/m7/Common/syscalls.o
 .debug_macro   0x00000000       0x29 ../../Build/m7/Common/syscalls.o
 .debug_macro   0x00000000       0x10 ../../Build/m7/Common/syscalls.o
 .debug_macro   0x00000000      0x242 ../../Build/m7/Common/syscalls.o
 .debug_macro   0x00000000       0x1c ../../Build/m7/Common/syscalls.o
 .debug_macro   0x00000000       0x10 ../../Build/m7/Common/syscalls.o
 .debug_macro   0x00000000       0x16 ../../Build/m7/Common/syscalls.o
 .debug_macro   0x00000000      0x103 ../../Build/m7/Common/syscalls.o
 .debug_macro   0x00000000      0x1df ../../Build/m7/Common/syscalls.o

Memory Configuration

Name             Origin             Length             Attributes
FLASH            0x08000000         0x00100000         xr
RAM              0x20000000         0x00020000         xrw
ITCMRAM          0x00000000         0x00010000         xrw
*default*        0x00000000         0xffffffff

Linker script and memory map

LOAD /usr/bin/../lib/gcc/arm-none-eabi/12.3.1/thumb/v7e-m+fp/hard/crti.o
LOAD /usr/bin/../lib/gcc/arm-none-eabi/12.3.1/thumb/v7e-m+fp/hard/crtbegin.o
LOAD /usr/bin/../lib/gcc/arm-none-eabi/12.3.1/../../../../arm-none-eabi/lib/thumb/v7e-m+fp/hard/crt0.o
LOAD ../../Build/m7/m7/main_m7.o
LOAD ../../Build/m7/Common/sysmem.o
LOAD ../../Build/m7/Common/syscalls.o
LOAD ../../Build/m7/Startup/startup_stm32h755xx.o
START GROUP
LOAD /usr/bin/../lib/gcc/arm-none-eabi/12.3.1/../../../../arm-none-eabi/lib/thumb/v7e-m+fp/hard/libstdc++_nano.a
LOAD /usr/bin/../lib/gcc/arm-none-eabi/12.3.1/../../../../arm-none-eabi/lib/thumb/v7e-m+fp/hard/libsupc++_nano.a
END GROUP
LOAD /usr/bin/../lib/gcc/arm-none-eabi/12.3.1/../../../../arm-none-eabi/lib/thumb/v7e-m+fp/hard/libstdc++_nano.a
LOAD /usr/bin/../lib/gcc/arm-none-eabi/12.3.1/../../../../arm-none-eabi/lib/thumb/v7e-m+fp/hard/libm.a
LOAD /usr/bin/../lib/gcc/arm-none-eabi/12.3.1/../../../../arm-none-eabi/lib/thumb/v7e-m+fp/hard/libc_nano.a
START GROUP
LOAD /usr/bin/../lib/gcc/arm-none-eabi/12.3.1/thumb/v7e-m+fp/hard/libgcc.a
LOAD /usr/bin/../lib/gcc/arm-none-eabi/12.3.1/../../../../arm-none-eabi/lib/thumb/v7e-m+fp/hard/libc_nano.a
END GROUP
START GROUP
LOAD /usr/bin/../lib/gcc/arm-none-eabi/12.3.1/thumb/v7e-m+fp/hard/libgcc.a
LOAD /usr/bin/../lib/gcc/arm-none-eabi/12.3.1/../../../../arm-none-eabi/lib/thumb/v7e-m+fp/hard/libc_nano.a
END GROUP
LOAD /usr/bin/../lib/gcc/arm-none-eabi/12.3.1/thumb/v7e-m+fp/hard/crtend.o
LOAD /usr/bin/../lib/gcc/arm-none-eabi/12.3.1/thumb/v7e-m+fp/hard/crtn.o
                0x20020000                        _estack = 0x20020000
                0x00000200                        _Min_Heap_Size = 0x200
                0x00000400                        _Min_Stack_Size = 0x400

.isr_vector     0x08000000      0x298
                0x08000000                        . = ALIGN (0x4)
 *(.isr_vector)
 .isr_vector    0x08000000      0x298 ../../Build/m7/Startup/startup_stm32h755xx.o
                0x08000000                g_pfnVectors
                0x08000298                        . = ALIGN (0x4)

.text           0x08000298     0x2a70
                0x08000298                        . = ALIGN (0x4)
 *(.text)
 .text          0x08000298        0x0 /usr/bin/../lib/gcc/arm-none-eabi/12.3.1/thumb/v7e-m+fp/hard/crti.o
 .text          0x08000298        0x0 /usr/bin/../lib/gcc/arm-none-eabi/12.3.1/thumb/v7e-m+fp/hard/crtbegin.o
 .text          0x08000298       0x7c /usr/bin/../lib/gcc/arm-none-eabi/12.3.1/../../../../arm-none-eabi/lib/thumb/v7e-m+fp/hard/crt0.o
                0x08000298                _stack_init
                0x080002a0                _mainCRTStartup
                0x080002a0                _start
 .text          0x08000314        0x0 ../../Build/m7/m7/main_m7.o
 .text          0x08000314        0x0 ../../Build/m7/Common/sysmem.o
 .text          0x08000314        0x0 ../../Build/m7/Common/syscalls.o
 .text          0x08000314       0x14 ../../Build/m7/Startup/startup_stm32h755xx.o
 .text          0x08000328        0x0 /usr/bin/../lib/gcc/arm-none-eabi/12.3.1/../../../../arm-none-eabi/lib/thumb/v7e-m+fp/hard/libstdc++_nano.a(eh_personality.o)
 .text          0x08000328        0x0 /usr/bin/../lib/gcc/arm-none-eabi/12.3.1/../../../../arm-none-eabi/lib/thumb/v7e-m+fp/hard/libstdc++_nano.a(eh_terminate.o)
 .text          0x08000328        0x0 /usr/bin/../lib/gcc/arm-none-eabi/12.3.1/../../../../arm-none-eabi/lib/thumb/v7e-m+fp/hard/libstdc++_nano.a(eh_unex_handler.o)
 .text          0x08000328        0x0 /usr/bin/../lib/gcc/arm-none-eabi/12.3.1/../../../../arm-none-eabi/lib/thumb/v7e-m+fp/hard/libstdc++_nano.a(eh_arm.o)
 .text          0x08000328        0x0 /usr/bin/../lib/gcc/arm-none-eabi/12.3.1/../../../../arm-none-eabi/lib/thumb/v7e-m+fp/hard/libstdc++_nano.a(eh_call.o)
 .text          0x08000328        0x0 /usr/bin/../lib/gcc/arm-none-eabi/12.3.1/../../../../arm-none-eabi/lib/thumb/v7e-m+fp/hard/libstdc++_nano.a(eh_catch.o)
 .text          0x08000328        0x0 /usr/bin/../lib/gcc/arm-none-eabi/12.3.1/../../../../arm-none-eabi/lib/thumb/v7e-m+fp/hard/libstdc++_nano.a(eh_exception.o)
 .text          0x08000328        0x0 /usr/bin/../lib/gcc/arm-none-eabi/12.3.1/../../../../arm-none-eabi/lib/thumb/v7e-m+fp/hard/libstdc++_nano.a(eh_globals.o)
 .text          0x08000328        0x0 /usr/bin/../lib/gcc/arm-none-eabi/12.3.1/../../../../arm-none-eabi/lib/thumb/v7e-m+fp/hard/libstdc++_nano.a(eh_term_handler.o)
 .text          0x08000328        0x0 /usr/bin/../lib/gcc/arm-none-eabi/12.3.1/../../../../arm-none-eabi/lib/thumb/v7e-m+fp/hard/libstdc++_nano.a(si_class_type_info.o)
 .text          0x08000328        0x0 /usr/bin/../lib/gcc/arm-none-eabi/12.3.1/../../../../arm-none-eabi/lib/thumb/v7e-m+fp/hard/libstdc++_nano.a(tinfo.o)
 .text          0x08000328        0x0 /usr/bin/../lib/gcc/arm-none-eabi/12.3.1/../../../../arm-none-eabi/lib/thumb/v7e-m+fp/hard/libstdc++_nano.a(atexit_arm.o)
 .text          0x08000328        0x0 /usr/bin/../lib/gcc/arm-none-eabi/12.3.1/../../../../arm-none-eabi/lib/thumb/v7e-m+fp/hard/libstdc++_nano.a(class_type_info.o)
 .text          0x08000328        0x0 /usr/bin/../lib/gcc/arm-none-eabi/12.3.1/../../../../arm-none-eabi/lib/thumb/v7e-m+fp/hard/libstdc++_nano.a(del_ops.o)
 .text          0x08000328        0x0 /usr/bin/../lib/gcc/arm-none-eabi/12.3.1/../../../../arm-none-eabi/lib/thumb/v7e-m+fp/hard/libstdc++_nano.a(del_op.o)
 .text          0x08000328        0x0 /usr/bin/../lib/gcc/arm-none-eabi/12.3.1/../../../../arm-none-eabi/lib/thumb/v7e-m+fp/hard/libc_nano.a(libc_a-exit.o)
 .text          0x08000328        0x0 /usr/bin/../lib/gcc/arm-none-eabi/12.3.1/../../../../arm-none-eabi/lib/thumb/v7e-m+fp/hard/libc_nano.a(libc_a-init.o)
 .text          0x08000328       0x14 /usr/bin/../lib/gcc/arm-none-eabi/12.3.1/../../../../arm-none-eabi/lib/thumb/v7e-m+fp/hard/libc_nano.a(libc_a-strcmp.o)
                0x08000328                strcmp
 .text          0x0800033c        0x0 /usr/bin/../lib/gcc/arm-none-eabi/12.3.1/../../../../arm-none-eabi/lib/thumb/v7e-m+fp/hard/libc_nano.a(libc_a-malloc.o)
 .text          0x0800033c        0x0 /usr/bin/../lib/gcc/arm-none-eabi/12.3.1/../../../../arm-none-eabi/lib/thumb/v7e-m+fp/hard/libc_nano.a(libc_a-mallocr.o)
 .text          0x0800033c        0x0 /usr/bin/../lib/gcc/arm-none-eabi/12.3.1/../../../../arm-none-eabi/lib/thumb/v7e-m+fp/hard/libc_nano.a(libc_a-abort.o)
 .text          0x0800033c        0x0 /usr/bin/../lib/gcc/arm-none-eabi/12.3.1/../../../../arm-none-eabi/lib/thumb/v7e-m+fp/hard/libc_nano.a(libc_a-cxa_atexit.o)
 .text          0x0800033c        0x0 /usr/bin/../lib/gcc/arm-none-eabi/12.3.1/../../../../arm-none-eabi/lib/thumb/v7e-m+fp/hard/libc_nano.a(libc_a-findfp.o)
 .text          0x0800033c        0x0 /usr/bin/../lib/gcc/arm-none-eabi/12.3.1/../../../../arm-none-eabi/lib/thumb/v7e-m+fp/hard/libc_nano.a(libc_a-stdio.o)
 .text          0x0800033c        0x0 /usr/bin/../lib/gcc/arm-none-eabi/12.3.1/../../../../arm-none-eabi/lib/thumb/v7e-m+fp/hard/libc_nano.a(libc_a-mlock.o)
 .text          0x0800033c        0x0 /usr/bin/../lib/gcc/arm-none-eabi/12.3.1/../../../../arm-none-eabi/lib/thumb/v7e-m+fp/hard/libc_nano.a(libc_a-on_exit_args.o)
 .text          0x0800033c        0x0 /usr/bin/../lib/gcc/arm-none-eabi/12.3.1/../../../../arm-none-eabi/lib/thumb/v7e-m+fp/hard/libc_nano.a(libc_a-sbrkr.o)
 .text          0x0800033c        0x0 /usr/bin/../lib/gcc/arm-none-eabi/12.3.1/../../../../arm-none-eabi/lib/thumb/v7e-m+fp/hard/libc_nano.a(libc_a-writer.o)
 .text          0x0800033c        0x0 /usr/bin/../lib/gcc/arm-none-eabi/12.3.1/../../../../arm-none-eabi/lib/thumb/v7e-m+fp/hard/libc_nano.a(libc_a-errno.o)
 .text          0x0800033c        0x0 /usr/bin/../lib/gcc/arm-none-eabi/12.3.1/../../../../arm-none-eabi/lib/thumb/v7e-m+fp/hard/libc_nano.a(libc_a-fwalk.o)
 .text          0x0800033c        0x0 /usr/bin/../lib/gcc/arm-none-eabi/12.3.1/../../../../arm-none-eabi/lib/thumb/v7e-m+fp/hard/libc_nano.a(libc_a-memset.o)
 .text          0x0800033c        0x0 /usr/bin/../lib/gcc/arm-none-eabi/12.3.1/../../../../arm-none-eabi/lib/thumb/v7e-m+fp/hard/libc_nano.a(libc_a-freer.o)
 .text          0x0800033c        0x0 /usr/bin/../lib/gcc/arm-none-eabi/12.3.1/../../../../arm-none-eabi/lib/thumb/v7e-m+fp/hard/libc_nano.a(libc_a-lock.o)
 .text          0x0800033c        0x0 /usr/bin/../lib/gcc/arm-none-eabi/12.3.1/../../../../arm-none-eabi/lib/thumb/v7e-m+fp/hard/libc_nano.a(libc_a-closer.o)
 .text          0x0800033c        0x0 /usr/bin/../lib/gcc/arm-none-eabi/12.3.1/../../../../arm-none-eabi/lib/thumb/v7e-m+fp/hard/libc_nano.a(libc_a-reent.o)
 .text          0x0800033c        0x0 /usr/bin/../lib/gcc/arm-none-eabi/12.3.1/../../../../arm-none-eabi/lib/thumb/v7e-m+fp/hard/libc_nano.a(libc_a-impure.o)
 .text          0x0800033c        0x0 /usr/bin/../lib/gcc/arm-none-eabi/12.3.1/../../../../arm-none-eabi/lib/thumb/v7e-m+fp/hard/libc_nano.a(libc_a-fflush.o)
 .text          0x0800033c        0x0 /usr/bin/../lib/gcc/arm-none-eabi/12.3.1/../../../../arm-none-eabi/lib/thumb/v7e-m+fp/hard/libc_nano.a(libc_a-signal.o)
 .text          0x0800033c        0x0 /usr/bin/../lib/gcc/arm-none-eabi/12.3.1/../../../../arm-none-eabi/lib/thumb/v7e-m+fp/hard/libc_nano.a(libc_a-lseekr.o)
 .text          0x0800033c        0x0 /usr/bin/../lib/gcc/arm-none-eabi/12.3.1/../../../../arm-none-eabi/lib/thumb/v7e-m+fp/hard/libc_nano.a(libc_a-readr.o)
 .text          0x0800033c        0x0 /usr/bin/../lib/gcc/arm-none-eabi/12.3.1/../../../../arm-none-eabi/lib/thumb/v7e-m+fp/hard/libc_nano.a(libc_a-signalr.o)
 .text          0x0800033c        0x0 /usr/bin/../lib/gcc/arm-none-eabi/12.3.1/thumb/v7e-m+fp/hard/libgcc.a(unwind-arm.o)
 .text          0x0800033c      0x1ac /usr/bin/../lib/gcc/arm-none-eabi/12.3.1/thumb/v7e-m+fp/hard/libgcc.a(libunwind.o)
                0x0800033c                __restore_core_regs
                0x0800033c                restore_core_regs
                0x08000354                __gnu_Unwind_Restore_VFP
                0x0800035c                __gnu_Unwind_Save_VFP
                0x08000364                __gnu_Unwind_Restore_VFP_D
                0x0800036c                __gnu_Unwind_Save_VFP_D
                0x08000374                __gnu_Unwind_Restore_VFP_D_16_to_31
                0x0800037c                __gnu_Unwind_Save_VFP_D_16_to_31
                0x08000384                __gnu_Unwind_Restore_WMMXD
                0x080003c8                __gnu_Unwind_Save_WMMXD
                0x0800040c                __gnu_Unwind_Restore_WMMXC
                0x08000420                __gnu_Unwind_Save_WMMXC
                0x08000434                ___Unwind_RaiseException
                0x08000434                _Unwind_RaiseException
                0x08000458                ___Unwind_Resume
                0x08000458                _Unwind_Resume
                0x0800047c                _Unwind_Resume_or_Rethrow
                0x0800047c                ___Unwind_Resume_or_Rethrow
                0x080004a0                ___Unwind_ForcedUnwind
                0x080004a0                _Unwind_ForcedUnwind
                0x080004c4                _Unwind_Backtrace
                0x080004c4                ___Unwind_Backtrace
 .text          0x080004e8        0x0 /usr/bin/../lib/gcc/arm-none-eabi/12.3.1/thumb/v7e-m+fp/hard/libgcc.a(pr-support.o)
 .text          0x080004e8        0x0 /usr/bin/../lib/gcc/arm-none-eabi/12.3.1/../../../../arm-none-eabi/lib/thumb/v7e-m+fp/hard/libc_nano.a(libc_a-memcpy-stub.o)
 .text          0x080004e8        0x0 /usr/bin/../lib/gcc/arm-none-eabi/12.3.1/thumb/v7e-m+fp/hard/crtend.o
 .text          0x080004e8        0x0 /usr/bin/../lib/gcc/arm-none-eabi/12.3.1/thumb/v7e-m+fp/hard/crtn.o
 *(.text*)
 .text.deregister_tm_clones
                0x080004e8       0x1c /usr/bin/../lib/gcc/arm-none-eabi/12.3.1/thumb/v7e-m+fp/hard/crtbegin.o
 .text.register_tm_clones
                0x08000504       0x24 /usr/bin/../lib/gcc/arm-none-eabi/12.3.1/thumb/v7e-m+fp/hard/crtbegin.o
 .text.__do_global_dtors_aux
                0x08000528       0x28 /usr/bin/../lib/gcc/arm-none-eabi/12.3.1/thumb/v7e-m+fp/hard/crtbegin.o
 .text.frame_dummy
                0x08000550       0x24 /usr/bin/../lib/gcc/arm-none-eabi/12.3.1/thumb/v7e-m+fp/hard/crtbegin.o
 .text._ZL20__gthread_key_deletei
                0x08000574       0x16 ../../Build/m7/m7/main_m7.o
 *fill*         0x0800058a        0x2 
 .text._ZN15InputPinHandlerIA2_PVmEC1ERA2_KS1_
                0x0800058c       0x28 ../../Build/m7/m7/main_m7.o
                0x0800058c                InputPinHandler<unsigned long volatile* [2]>::InputPinHandler(unsigned long volatile* const (&) [2])
 .text._ZN21PeripheralHandlerBaseIN5Utils8TypeListIJ4pairIL18InputPinProperties0EbES2_ILS3_1EiEEEEA2_PVm15InputPinHandlerIS9_EEC2Ev
                0x080005b4       0x28 ../../Build/m7/m7/main_m7.o
                0x080005b4                PeripheralHandlerBase<Utils::TypeList<pair<(InputPinProperties)0, bool>, pair<(InputPinProperties)1, int> >, unsigned long volatile* [2], InputPinHandler<unsigned long volatile* [2]> >::PeripheralHandlerBase()
 .text._ZN20classMembersWithTagsIJ4pairIL18InputPinProperties0EbES0_ILS1_1EiEEEC1Ev
                0x080005dc       0x1a ../../Build/m7/m7/main_m7.o
                0x080005dc                classMembersWithTags<pair<(InputPinProperties)0, bool>, pair<(InputPinProperties)1, int> >::classMembersWithTags()
 .text._ZNSt5tupleIJbiEEC1ILb1ELb1EEEv
                0x080005f6       0x1a ../../Build/m7/m7/main_m7.o
                0x080005f6                std::tuple<bool, int>::tuple<true, true>()
 .text._ZNSt11_Tuple_implILj0EJbiEEC2Ev
                0x08000610       0x24 ../../Build/m7/m7/main_m7.o
                0x08000610                std::_Tuple_impl<0u, bool, int>::_Tuple_impl()
 .text._ZNSt11_Tuple_implILj1EJiEEC2Ev
                0x08000634       0x1a ../../Build/m7/m7/main_m7.o
                0x08000634                std::_Tuple_impl<1u, int>::_Tuple_impl()
 .text._ZNSt10_Head_baseILj1EiLb0EEC2Ev
                0x0800064e       0x1c ../../Build/m7/m7/main_m7.o
                0x0800064e                std::_Head_base<1u, int, false>::_Head_base()
 .text._ZNSt10_Head_baseILj0EbLb0EEC2Ev
                0x0800066a       0x1c ../../Build/m7/m7/main_m7.o
                0x0800066a                std::_Head_base<0u, bool, false>::_Head_base()
 .text.main     0x08000686        0x8 ../../Build/m7/m7/main_m7.o
                0x08000686                main
 .text.SystemInit
                0x0800068e        0xe ../../Build/m7/m7/main_m7.o
                0x0800068e                SystemInit
 .text._ZN21PeripheralHandlerBaseIN5Utils8TypeListIJ4pairIL18InputPinProperties0EbES2_ILS3_1EiEEEEA2_PVm15InputPinHandlerIS9_EED2Ev
                0x0800069c       0x28 ../../Build/m7/m7/main_m7.o
                0x0800069c                PeripheralHandlerBase<Utils::TypeList<pair<(InputPinProperties)0, bool>, pair<(InputPinProperties)1, int> >, unsigned long volatile* [2], InputPinHandler<unsigned long volatile* [2]> >::~PeripheralHandlerBase()
                0x0800069c                PeripheralHandlerBase<Utils::TypeList<pair<(InputPinProperties)0, bool>, pair<(InputPinProperties)1, int> >, unsigned long volatile* [2], InputPinHandler<unsigned long volatile* [2]> >::~PeripheralHandlerBase()
 .text._ZN15InputPinHandlerIA2_PVmED2Ev
                0x080006c4       0x24 ../../Build/m7/m7/main_m7.o
                0x080006c4                InputPinHandler<unsigned long volatile* [2]>::~InputPinHandler()
                0x080006c4                InputPinHandler<unsigned long volatile* [2]>::~InputPinHandler()
 .text._Z41__static_initialization_and_destruction_0ii
                0x080006e8       0x48 ../../Build/m7/m7/main_m7.o
 .text._ZN15InputPinHandlerIA2_PVmE4tempEv
                0x08000730       0x14 ../../Build/m7/m7/main_m7.o
                0x08000730                InputPinHandler<unsigned long volatile* [2]>::temp()
 .text._GLOBAL__sub_I_a
                0x08000744       0x10 ../../Build/m7/m7/main_m7.o
 .text._GLOBAL__sub_D_a
                0x08000754       0x10 ../../Build/m7/m7/main_m7.o
 .text._sbrk    0x08000764       0x6c ../../Build/m7/Common/sysmem.o
                0x08000764                _sbrk
 .text.initialise_monitor_handles
                0x080007d0        0xe ../../Build/m7/Common/syscalls.o
                0x080007d0                initialise_monitor_handles
 .text._getpid  0x080007de       0x10 ../../Build/m7/Common/syscalls.o
                0x080007de                _getpid
 .text._kill    0x080007ee       0x20 ../../Build/m7/Common/syscalls.o
                0x080007ee                _kill
 .text._exit    0x0800080e       0x16 ../../Build/m7/Common/syscalls.o
                0x0800080e                _exit
 .text._read    0x08000824       0x3a ../../Build/m7/Common/syscalls.o
                0x08000824                _read
 .text._write   0x0800085e       0x38 ../../Build/m7/Common/syscalls.o
                0x0800085e                _write
 .text._close   0x08000896       0x18 ../../Build/m7/Common/syscalls.o
                0x08000896                _close
 .text._fstat   0x080008ae       0x20 ../../Build/m7/Common/syscalls.o
                0x080008ae                _fstat
 .text._isatty  0x080008ce       0x16 ../../Build/m7/Common/syscalls.o
                0x080008ce                _isatty
 .text._lseek   0x080008e4       0x1a ../../Build/m7/Common/syscalls.o
                0x080008e4                _lseek
 .text._open    0x080008fe       0x1c ../../Build/m7/Common/syscalls.o
                0x080008fe                _open
 .text._wait    0x0800091a       0x1e ../../Build/m7/Common/syscalls.o
                0x0800091a                _wait
 .text._unlink  0x08000938       0x1e ../../Build/m7/Common/syscalls.o
                0x08000938                _unlink
 .text._times   0x08000956       0x18 ../../Build/m7/Common/syscalls.o
                0x08000956                _times
 .text._stat    0x0800096e       0x20 ../../Build/m7/Common/syscalls.o
                0x0800096e                _stat
 .text._link    0x0800098e       0x20 ../../Build/m7/Common/syscalls.o
                0x0800098e                _link
 .text._fork    0x080009ae       0x16 ../../Build/m7/Common/syscalls.o
                0x080009ae                _fork
 .text._execve  0x080009c4       0x22 ../../Build/m7/Common/syscalls.o
                0x080009c4                _execve
 *fill*         0x080009e6        0x2 
 .text.Reset_Handler
                0x080009e8       0x50 ../../Build/m7/Startup/startup_stm32h755xx.o
                0x080009e8                Reset_Handler
 .text.Default_Handler
                0x08000a38        0x2 ../../Build/m7/Startup/startup_stm32h755xx.o
                0x08000a38                RTC_Alarm_IRQHandler
                0x08000a38                HASH_RNG_IRQHandler
                0x08000a38                EXTI2_IRQHandler
                0x08000a38                TIM8_CC_IRQHandler
                0x08000a38                HRTIM1_Master_IRQHandler
                0x08000a38                DebugMon_Handler
                0x08000a38                UART8_IRQHandler
                0x08000a38                SPI4_IRQHandler
                0x08000a38                TIM1_CC_IRQHandler
                0x08000a38                BDMA_Channel6_IRQHandler
                0x08000a38                DMA2_Stream5_IRQHandler
                0x08000a38                HardFault_Handler
                0x08000a38                HRTIM1_FLT_IRQHandler
                0x08000a38                JPEG_IRQHandler
                0x08000a38                DMA1_Stream5_IRQHandler
                0x08000a38                SysTick_Handler
                0x08000a38                BDMA_Channel1_IRQHandler
                0x08000a38                HRTIM1_TIMD_IRQHandler
                0x08000a38                TAMP_STAMP_IRQHandler
                0x08000a38                PendSV_Handler
                0x08000a38                NMI_Handler
                0x08000a38                EXTI3_IRQHandler
                0x08000a38                LPTIM4_IRQHandler
                0x08000a38                TIM8_TRG_COM_TIM14_IRQHandler
                0x08000a38                LPTIM2_IRQHandler
                0x08000a38                DFSDM1_FLT1_IRQHandler
                0x08000a38                DMAMUX2_OVR_IRQHandler
                0x08000a38                TIM8_UP_TIM13_IRQHandler
                0x08000a38                I2C3_ER_IRQHandler
                0x08000a38                DFSDM1_FLT2_IRQHandler
                0x08000a38                MDMA_IRQHandler
                0x08000a38                LPTIM3_IRQHandler
                0x08000a38                HSEM1_IRQHandler
                0x08000a38                EXTI0_IRQHandler
                0x08000a38                I2C2_EV_IRQHandler
                0x08000a38                DMA1_Stream2_IRQHandler
                0x08000a38                FPU_IRQHandler
                0x08000a38                OTG_HS_WKUP_IRQHandler
                0x08000a38                FDCAN1_IT1_IRQHandler
                0x08000a38                UsageFault_Handler
                0x08000a38                LTDC_ER_IRQHandler
                0x08000a38                DMA2_Stream2_IRQHandler
                0x08000a38                HRTIM1_TIME_IRQHandler
                0x08000a38                SPI1_IRQHandler
                0x08000a38                TIM6_DAC_IRQHandler
                0x08000a38                DCMI_IRQHandler
                0x08000a38                HRTIM1_TIMC_IRQHandler
                0x08000a38                DMA2_Stream3_IRQHandler
                0x08000a38                SAI2_IRQHandler
                0x08000a38                DFSDM1_FLT3_IRQHandler
                0x08000a38                USART6_IRQHandler
                0x08000a38                TIM17_IRQHandler
                0x08000a38                USART3_IRQHandler
                0x08000a38                BDMA_Channel7_IRQHandler
                0x08000a38                CRYP_IRQHandler
                0x08000a38                LPTIM5_IRQHandler
                0x08000a38                UART5_IRQHandler
                0x08000a38                ADC3_IRQHandler
                0x08000a38                DMA2_Stream0_IRQHandler
                0x08000a38                TIM4_IRQHandler
                0x08000a38                BDMA_Channel2_IRQHandler
                0x08000a38                QUADSPI_IRQHandler
                0x08000a38                I2C1_EV_IRQHandler
                0x08000a38                DMA1_Stream6_IRQHandler
                0x08000a38                DMAMUX1_OVR_IRQHandler
                0x08000a38                DMA1_Stream1_IRQHandler
                0x08000a38                TIM16_IRQHandler
                0x08000a38                UART4_IRQHandler
                0x08000a38                BDMA_Channel5_IRQHandler
                0x08000a38                TIM3_IRQHandler
                0x08000a38                RCC_IRQHandler
                0x08000a38                TIM8_BRK_TIM12_IRQHandler
                0x08000a38                TIM1_TRG_COM_IRQHandler
                0x08000a38                Default_Handler
                0x08000a38                ECC_IRQHandler
                0x08000a38                CEC_IRQHandler
                0x08000a38                EXTI15_10_IRQHandler
                0x08000a38                BDMA_Channel0_IRQHandler
                0x08000a38                ADC_IRQHandler
                0x08000a38                DMA1_Stream7_IRQHandler
                0x08000a38                HRTIM1_TIMA_IRQHandler
                0x08000a38                SPI5_IRQHandler
                0x08000a38                TIM7_IRQHandler
                0x08000a38                SDMMC1_IRQHandler
                0x08000a38                TIM5_IRQHandler
                0x08000a38                DMA2_Stream7_IRQHandler
                0x08000a38                TIM15_IRQHandler
                0x08000a38                PVD_AVD_IRQHandler
                0x08000a38                I2C3_EV_IRQHandler
                0x08000a38                EXTI9_5_IRQHandler
                0x08000a38                RTC_WKUP_IRQHandler
                0x08000a38                LTDC_IRQHandler
                0x08000a38                SAI3_IRQHandler
                0x08000a38                ETH_WKUP_IRQHandler
                0x08000a38                SPDIF_RX_IRQHandler
                0x08000a38                SPI2_IRQHandler
                0x08000a38                OTG_HS_EP1_IN_IRQHandler
                0x08000a38                MemManage_Handler
                0x08000a38                DMA1_Stream0_IRQHandler
                0x08000a38                SVC_Handler
                0x08000a38                CRS_IRQHandler
                0x08000a38                CM7_SEV_IRQHandler
                0x08000a38                EXTI4_IRQHandler
                0x08000a38                CM4_SEV_IRQHandler
                0x08000a38                HRTIM1_TIMB_IRQHandler
                0x08000a38                FDCAN2_IT1_IRQHandler
                0x08000a38                ETH_IRQHandler
                0x08000a38                TIM1_UP_IRQHandler
                0x08000a38                WWDG_RST_IRQHandler
                0x08000a38                BDMA_Channel4_IRQHandler
                0x08000a38                OTG_HS_EP1_OUT_IRQHandler
                0x08000a38                WWDG_IRQHandler
                0x08000a38                SPI6_IRQHandler
                0x08000a38                MDIOS_IRQHandler
                0x08000a38                I2C4_EV_IRQHandler
                0x08000a38                FDCAN2_IT0_IRQHandler
                0x08000a38                LPUART1_IRQHandler
                0x08000a38                FDCAN1_IT0_IRQHandler
                0x08000a38                TIM2_IRQHandler
                0x08000a38                OTG_FS_WKUP_IRQHandler
                0x08000a38                OTG_HS_IRQHandler
                0x08000a38                HSEM2_IRQHandler
                0x08000a38                DMA2D_IRQHandler
                0x08000a38                TIM1_BRK_IRQHandler
                0x08000a38                EXTI1_IRQHandler
                0x08000a38                SDMMC2_IRQHandler
                0x08000a38                OTG_FS_EP1_OUT_IRQHandler
                0x08000a38                BDMA_Channel3_IRQHandler
                0x08000a38                HOLD_CORE_IRQHandler
                0x08000a38                UART7_IRQHandler
                0x08000a38                MDIOS_WKUP_IRQHandler
                0x08000a38                USART2_IRQHandler
                0x08000a38                DFSDM1_FLT0_IRQHandler
                0x08000a38                SAI4_IRQHandler
                0x08000a38                I2C2_ER_IRQHandler
                0x08000a38                DMA2_Stream1_IRQHandler
                0x08000a38                FLASH_IRQHandler
                0x08000a38                DMA2_Stream4_IRQHandler
                0x08000a38                BusFault_Handler
                0x08000a38                USART1_IRQHandler
                0x08000a38                OTG_FS_IRQHandler
                0x08000a38                SPI3_IRQHandler
                0x08000a38                WAKEUP_PIN_IRQHandler
                0x08000a38                DMA1_Stream4_IRQHandler
                0x08000a38                OTG_FS_EP1_IN_IRQHandler
                0x08000a38                I2C1_ER_IRQHandler
                0x08000a38                FMC_IRQHandler
                0x08000a38                FDCAN_CAL_IRQHandler
                0x08000a38                SWPMI1_IRQHandler
                0x08000a38                COMP1_IRQHandler
                0x08000a38                LPTIM1_IRQHandler
                0x08000a38                I2C4_ER_IRQHandler
                0x08000a38                DMA2_Stream6_IRQHandler
                0x08000a38                SAI1_IRQHandler
                0x08000a38                DMA1_Stream3_IRQHandler
 .text._ZL12read_uleb128PKhPm
                0x08000a3a       0x1e /usr/bin/../lib/gcc/arm-none-eabi/12.3.1/../../../../arm-none-eabi/lib/thumb/v7e-m+fp/hard/libstdc++_nano.a(eh_personality.o)
 .text._ZL12read_sleb128PKhPl
                0x08000a58       0x30 /usr/bin/../lib/gcc/arm-none-eabi/12.3.1/../../../../arm-none-eabi/lib/thumb/v7e-m+fp/hard/libstdc++_nano.a(eh_personality.o)
 .text._ZL28read_encoded_value_with_basehjPKhPj
                0x08000a88       0x8c /usr/bin/../lib/gcc/arm-none-eabi/12.3.1/../../../../arm-none-eabi/lib/thumb/v7e-m+fp/hard/libstdc++_nano.a(eh_personality.o)
 .text._ZL21base_of_encoded_valuehP15_Unwind_Context
                0x08000b14       0x42 /usr/bin/../lib/gcc/arm-none-eabi/12.3.1/../../../../arm-none-eabi/lib/thumb/v7e-m+fp/hard/libstdc++_nano.a(eh_personality.o)
 .text._ZL18read_encoded_valueP15_Unwind_ContexthPKhPj
                0x08000b56       0x20 /usr/bin/../lib/gcc/arm-none-eabi/12.3.1/../../../../arm-none-eabi/lib/thumb/v7e-m+fp/hard/libstdc++_nano.a(eh_personality.o)
 .text._ZL17parse_lsda_headerP15_Unwind_ContextPKhP16lsda_header_info
                0x08000b76       0x5e /usr/bin/../lib/gcc/arm-none-eabi/12.3.1/../../../../arm-none-eabi/lib/thumb/v7e-m+fp/hard/libstdc++_nano.a(eh_personality.o)
 .text._Unwind_GetGR
                0x08000bd4       0x18 /usr/bin/../lib/gcc/arm-none-eabi/12.3.1/../../../../arm-none-eabi/lib/thumb/v7e-m+fp/hard/libstdc++_nano.a(eh_personality.o)
 .text.__gxx_personality_v0
                0x08000bec      0x330 /usr/bin/../lib/gcc/arm-none-eabi/12.3.1/../../../../arm-none-eabi/lib/thumb/v7e-m+fp/hard/libstdc++_nano.a(eh_personality.o)
                0x08000bec                __gxx_personality_v0
 .text._ZN10__cxxabiv111__terminateEPFvvE
                0x08000f1c        0x8 /usr/bin/../lib/gcc/arm-none-eabi/12.3.1/../../../../arm-none-eabi/lib/thumb/v7e-m+fp/hard/libstdc++_nano.a(eh_terminate.o)
                0x08000f1c                __cxxabiv1::__terminate(void (*)())
 .text._ZSt13set_terminatePFvvE
                0x08000f24       0x2c /usr/bin/../lib/gcc/arm-none-eabi/12.3.1/../../../../arm-none-eabi/lib/thumb/v7e-m+fp/hard/libstdc++_nano.a(eh_terminate.o)
                0x08000f24                std::set_terminate(void (*)())
 .text._ZSt13get_terminatev
                0x08000f50       0x10 /usr/bin/../lib/gcc/arm-none-eabi/12.3.1/../../../../arm-none-eabi/lib/thumb/v7e-m+fp/hard/libstdc++_nano.a(eh_terminate.o)
                0x08000f50                std::get_terminate()
 .text._ZSt9terminatev
                0x08000f60        0xa /usr/bin/../lib/gcc/arm-none-eabi/12.3.1/../../../../arm-none-eabi/lib/thumb/v7e-m+fp/hard/libstdc++_nano.a(eh_terminate.o)
                0x08000f60                std::terminate()
 .text._ZN10__cxxabiv112__unexpectedEPFvvE
                0x08000f6a        0x8 /usr/bin/../lib/gcc/arm-none-eabi/12.3.1/../../../../arm-none-eabi/lib/thumb/v7e-m+fp/hard/libstdc++_nano.a(eh_terminate.o)
                0x08000f6a                __cxxabiv1::__unexpected(void (*)())
 *fill*         0x08000f72        0x2 
 .text._ZSt14set_unexpectedPFvvE
                0x08000f74       0x2c /usr/bin/../lib/gcc/arm-none-eabi/12.3.1/../../../../arm-none-eabi/lib/thumb/v7e-m+fp/hard/libstdc++_nano.a(eh_terminate.o)
                0x08000f74                std::set_unexpected(void (*)())
 .text._ZSt14get_unexpectedv
                0x08000fa0       0x10 /usr/bin/../lib/gcc/arm-none-eabi/12.3.1/../../../../arm-none-eabi/lib/thumb/v7e-m+fp/hard/libstdc++_nano.a(eh_terminate.o)
                0x08000fa0                std::get_unexpected()
 .text._ZSt10unexpectedv
                0x08000fb0        0xa /usr/bin/../lib/gcc/arm-none-eabi/12.3.1/../../../../arm-none-eabi/lib/thumb/v7e-m+fp/hard/libstdc++_nano.a(eh_terminate.o)
                0x08000fb0                std::unexpected()
 .text.__cxa_end_cleanup
                0x08000fba        0xc /usr/bin/../lib/gcc/arm-none-eabi/12.3.1/../../../../arm-none-eabi/lib/thumb/v7e-m+fp/hard/libstdc++_nano.a(eh_arm.o)
                0x08000fba                __cxa_end_cleanup
 .text._ZN10__cxxabiv1L24__is_gxx_exception_classEPc
                0x08000fc6       0x3a /usr/bin/../lib/gcc/arm-none-eabi/12.3.1/../../../../arm-none-eabi/lib/thumb/v7e-m+fp/hard/libstdc++_nano.a(eh_arm.o)
 .text.__cxa_type_match
                0x08001000       0xa0 /usr/bin/../lib/gcc/arm-none-eabi/12.3.1/../../../../arm-none-eabi/lib/thumb/v7e-m+fp/hard/libstdc++_nano.a(eh_arm.o)
                0x08001000                __cxa_type_match
 .text.__cxa_begin_cleanup
                0x080010a0       0x3a /usr/bin/../lib/gcc/arm-none-eabi/12.3.1/../../../../arm-none-eabi/lib/thumb/v7e-m+fp/hard/libstdc++_nano.a(eh_arm.o)
                0x080010a0                __cxa_begin_cleanup
 .text.__gnu_end_cleanup
                0x080010da       0x32 /usr/bin/../lib/gcc/arm-none-eabi/12.3.1/../../../../arm-none-eabi/lib/thumb/v7e-m+fp/hard/libstdc++_nano.a(eh_arm.o)
                0x080010da                __gnu_end_cleanup
 .text._ZN10__cxxabiv1L24__is_gxx_exception_classEPc
                0x0800110c       0x3a /usr/bin/../lib/gcc/arm-none-eabi/12.3.1/../../../../arm-none-eabi/lib/thumb/v7e-m+fp/hard/libstdc++_nano.a(eh_call.o)
 .text.__cxa_call_terminate
                0x08001146       0x1e /usr/bin/../lib/gcc/arm-none-eabi/12.3.1/../../../../arm-none-eabi/lib/thumb/v7e-m+fp/hard/libstdc++_nano.a(eh_call.o)
                0x08001146                __cxa_call_terminate
 .text.__cxa_call_unexpected
                0x08001164       0x24 /usr/bin/../lib/gcc/arm-none-eabi/12.3.1/../../../../arm-none-eabi/lib/thumb/v7e-m+fp/hard/libstdc++_nano.a(eh_call.o)
                0x08001164                __cxa_call_unexpected
 .text._ZN10__cxxabiv1L24__is_gxx_exception_classEPc
                0x08001188       0x3a /usr/bin/../lib/gcc/arm-none-eabi/12.3.1/../../../../arm-none-eabi/lib/thumb/v7e-m+fp/hard/libstdc++_nano.a(eh_catch.o)
 .text.__cxa_get_exception_ptr
                0x080011c2        0x4 /usr/bin/../lib/gcc/arm-none-eabi/12.3.1/../../../../arm-none-eabi/lib/thumb/v7e-m+fp/hard/libstdc++_nano.a(eh_catch.o)
                0x080011c2                __cxa_get_exception_ptr
 .text.__cxa_begin_catch
                0x080011c6       0x52 /usr/bin/../lib/gcc/arm-none-eabi/12.3.1/../../../../arm-none-eabi/lib/thumb/v7e-m+fp/hard/libstdc++_nano.a(eh_catch.o)
                0x080011c6                __cxa_begin_catch
 .text.__cxa_end_catch
                0x08001218       0x48 /usr/bin/../lib/gcc/arm-none-eabi/12.3.1/../../../../arm-none-eabi/lib/thumb/v7e-m+fp/hard/libstdc++_nano.a(eh_catch.o)
                0x08001218                __cxa_end_catch
 .text._ZSt18uncaught_exceptionv
                0x08001260        0x4 /usr/bin/../lib/gcc/arm-none-eabi/12.3.1/../../../../arm-none-eabi/lib/thumb/v7e-m+fp/hard/libstdc++_nano.a(eh_catch.o)
                0x08001260                std::uncaught_exception()
 .text._ZSt19uncaught_exceptionsv
                0x08001264        0x4 /usr/bin/../lib/gcc/arm-none-eabi/12.3.1/../../../../arm-none-eabi/lib/thumb/v7e-m+fp/hard/libstdc++_nano.a(eh_catch.o)
                0x08001264                std::uncaught_exceptions()
 .text._ZNSt9exceptionD2Ev
                0x08001268        0x2 /usr/bin/../lib/gcc/arm-none-eabi/12.3.1/../../../../arm-none-eabi/lib/thumb/v7e-m+fp/hard/libstdc++_nano.a(eh_exception.o)
                0x08001268                std::exception::~exception()
                0x08001268                std::exception::~exception()
 .text._ZNSt13bad_exceptionD2Ev
                0x0800126a        0x2 /usr/bin/../lib/gcc/arm-none-eabi/12.3.1/../../../../arm-none-eabi/lib/thumb/v7e-m+fp/hard/libstdc++_nano.a(eh_exception.o)
                0x0800126a                std::bad_exception::~bad_exception()
                0x0800126a                std::bad_exception::~bad_exception()
 .text._ZNKSt9exception4whatEv
                0x0800126c        0x8 /usr/bin/../lib/gcc/arm-none-eabi/12.3.1/../../../../arm-none-eabi/lib/thumb/v7e-m+fp/hard/libstdc++_nano.a(eh_exception.o)
                0x0800126c                transaction clone for std::exception::what() const
                0x0800126c                std::exception::what() const
 .text._ZNKSt13bad_exception4whatEv
                0x08001274        0x8 /usr/bin/../lib/gcc/arm-none-eabi/12.3.1/../../../../arm-none-eabi/lib/thumb/v7e-m+fp/hard/libstdc++_nano.a(eh_exception.o)
                0x08001274                transaction clone for std::bad_exception::what() const
                0x08001274                std::bad_exception::what() const
 .text._ZNSt9exceptionD0Ev
                0x0800127c        0xe /usr/bin/../lib/gcc/arm-none-eabi/12.3.1/../../../../arm-none-eabi/lib/thumb/v7e-m+fp/hard/libstdc++_nano.a(eh_exception.o)
                0x0800127c                std::exception::~exception()
 .text._ZNSt13bad_exceptionD0Ev
                0x0800128a        0xe /usr/bin/../lib/gcc/arm-none-eabi/12.3.1/../../../../arm-none-eabi/lib/thumb/v7e-m+fp/hard/libstdc++_nano.a(eh_exception.o)
                0x0800128a                std::bad_exception::~bad_exception()
 .text._ZN10__cxxabiv115__forced_unwindD2Ev
                0x08001298        0x2 /usr/bin/../lib/gcc/arm-none-eabi/12.3.1/../../../../arm-none-eabi/lib/thumb/v7e-m+fp/hard/libstdc++_nano.a(eh_exception.o)
                0x08001298                __cxxabiv1::__forced_unwind::~__forced_unwind()
                0x08001298                __cxxabiv1::__forced_unwind::~__forced_unwind()
 .text._ZN10__cxxabiv115__forced_unwindD0Ev
                0x0800129a        0xe /usr/bin/../lib/gcc/arm-none-eabi/12.3.1/../../../../arm-none-eabi/lib/thumb/v7e-m+fp/hard/libstdc++_nano.a(eh_exception.o)
                0x0800129a                __cxxabiv1::__forced_unwind::~__forced_unwind()
 .text._ZN10__cxxabiv119__foreign_exceptionD2Ev
                0x080012a8        0x2 /usr/bin/../lib/gcc/arm-none-eabi/12.3.1/../../../../arm-none-eabi/lib/thumb/v7e-m+fp/hard/libstdc++_nano.a(eh_exception.o)
                0x080012a8                __cxxabiv1::__foreign_exception::~__foreign_exception()
                0x080012a8                __cxxabiv1::__foreign_exception::~__foreign_exception()
 .text._ZN10__cxxabiv119__foreign_exceptionD0Ev
                0x080012aa        0xe /usr/bin/../lib/gcc/arm-none-eabi/12.3.1/../../../../arm-none-eabi/lib/thumb/v7e-m+fp/hard/libstdc++_nano.a(eh_exception.o)
                0x080012aa                __cxxabiv1::__foreign_exception::~__foreign_exception()
 .text._ZGTtNKSt9exceptionD1Ev
                0x080012b8        0x2 /usr/bin/../lib/gcc/arm-none-eabi/12.3.1/../../../../arm-none-eabi/lib/thumb/v7e-m+fp/hard/libstdc++_nano.a(eh_exception.o)
                0x080012b8                transaction clone for std::exception::~exception() const
 .text._ZGTtNKSt13bad_exceptionD1Ev
                0x080012ba        0x2 /usr/bin/../lib/gcc/arm-none-eabi/12.3.1/../../../../arm-none-eabi/lib/thumb/v7e-m+fp/hard/libstdc++_nano.a(eh_exception.o)
                0x080012ba                transaction clone for std::bad_exception::~bad_exception() const
 .text._ZN12_GLOBAL__N_113constant_initD2Ev
                0x080012bc        0x2 /usr/bin/../lib/gcc/arm-none-eabi/12.3.1/../../../../arm-none-eabi/lib/thumb/v7e-m+fp/hard/libstdc++_nano.a(eh_globals.o)
 *fill*         0x080012be        0x2 
 .text.__cxa_get_globals_fast
                0x080012c0        0x8 /usr/bin/../lib/gcc/arm-none-eabi/12.3.1/../../../../arm-none-eabi/lib/thumb/v7e-m+fp/hard/libstdc++_nano.a(eh_globals.o)
                0x080012c0                __cxa_get_globals_fast
 .text.__cxa_get_globals
                0x080012c8        0x8 /usr/bin/../lib/gcc/arm-none-eabi/12.3.1/../../../../arm-none-eabi/lib/thumb/v7e-m+fp/hard/libstdc++_nano.a(eh_globals.o)
                0x080012c8                __cxa_get_globals
 .text.startup._GLOBAL__sub_I___cxa_get_globals_fast
                0x080012d0       0x18 /usr/bin/../lib/gcc/arm-none-eabi/12.3.1/../../../../arm-none-eabi/lib/thumb/v7e-m+fp/hard/libstdc++_nano.a(eh_globals.o)
 .text._ZN10__cxxabiv120__si_class_type_infoD2Ev
                0x080012e8       0x14 /usr/bin/../lib/gcc/arm-none-eabi/12.3.1/../../../../arm-none-eabi/lib/thumb/v7e-m+fp/hard/libstdc++_nano.a(si_class_type_info.o)
                0x080012e8                __cxxabiv1::__si_class_type_info::~__si_class_type_info()
                0x080012e8                __cxxabiv1::__si_class_type_info::~__si_class_type_info()
 .text._ZN10__cxxabiv120__si_class_type_infoD0Ev
                0x080012fc       0x14 /usr/bin/../lib/gcc/arm-none-eabi/12.3.1/../../../../arm-none-eabi/lib/thumb/v7e-m+fp/hard/libstdc++_nano.a(si_class_type_info.o)
                0x080012fc                __cxxabiv1::__si_class_type_info::~__si_class_type_info()
 .text._ZNK10__cxxabiv120__si_class_type_info20__do_find_public_srcEiPKvPKNS_17__class_type_infoES2_
                0x08001310       0x3c /usr/bin/../lib/gcc/arm-none-eabi/12.3.1/../../../../arm-none-eabi/lib/thumb/v7e-m+fp/hard/libstdc++_nano.a(si_class_type_info.o)
                0x08001310                __cxxabiv1::__si_class_type_info::__do_find_public_src(int, void const*, __cxxabiv1::__class_type_info const*, void const*) const
 .text._ZNK10__cxxabiv120__si_class_type_info12__do_dyncastEiNS_17__class_type_info10__sub_kindEPKS1_PKvS4_S6_RNS1_16__dyncast_resultE
                0x0800134c       0x74 /usr/bin/../lib/gcc/arm-none-eabi/12.3.1/../../../../arm-none-eabi/lib/thumb/v7e-m+fp/hard/libstdc++_nano.a(si_class_type_info.o)
                0x0800134c                __cxxabiv1::__si_class_type_info::__do_dyncast(int, __cxxabiv1::__class_type_info::__sub_kind, __cxxabiv1::__class_type_info const*, void const*, __cxxabiv1::__class_type_info const*, void const*, __cxxabiv1::__class_type_info::__dyncast_result&) const
 .text._ZNK10__cxxabiv120__si_class_type_info11__do_upcastEPKNS_17__class_type_infoEPKvRNS1_15__upcast_resultE
                0x080013c0       0x2a /usr/bin/../lib/gcc/arm-none-eabi/12.3.1/../../../../arm-none-eabi/lib/thumb/v7e-m+fp/hard/libstdc++_nano.a(si_class_type_info.o)
                0x080013c0                __cxxabiv1::__si_class_type_info::__do_upcast(__cxxabiv1::__class_type_info const*, void const*, __cxxabiv1::__class_type_info::__upcast_result&) const
 .text._ZNSt9type_infoD2Ev
                0x080013ea        0x2 /usr/bin/../lib/gcc/arm-none-eabi/12.3.1/../../../../arm-none-eabi/lib/thumb/v7e-m+fp/hard/libstdc++_nano.a(tinfo.o)
                0x080013ea                std::type_info::~type_info()
                0x080013ea                std::type_info::~type_info()
 .text._ZNKSt9type_info14__is_pointer_pEv
                0x080013ec        0x4 /usr/bin/../lib/gcc/arm-none-eabi/12.3.1/../../../../arm-none-eabi/lib/thumb/v7e-m+fp/hard/libstdc++_nano.a(tinfo.o)
                0x080013ec                std::type_info::__is_function_p() const
                0x080013ec                std::type_info::__is_pointer_p() const
 .text._ZNKSt9type_info11__do_upcastEPKN10__cxxabiv117__class_type_infoEPPv
                0x080013f0        0x4 /usr/bin/../lib/gcc/arm-none-eabi/12.3.1/../../../../arm-none-eabi/lib/thumb/v7e-m+fp/hard/libstdc++_nano.a(tinfo.o)
                0x080013f0                std::type_info::__do_upcast(__cxxabiv1::__class_type_info const*, void**) const
 .text._ZNSt9type_infoD0Ev
                0x080013f4        0xe /usr/bin/../lib/gcc/arm-none-eabi/12.3.1/../../../../arm-none-eabi/lib/thumb/v7e-m+fp/hard/libstdc++_nano.a(tinfo.o)
                0x080013f4                std::type_info::~type_info()
 .text._ZNKSt9type_infoeqERKS_
                0x08001402       0x2c /usr/bin/../lib/gcc/arm-none-eabi/12.3.1/../../../../arm-none-eabi/lib/thumb/v7e-m+fp/hard/libstdc++_nano.a(tinfo.o)
                0x08001402                std::type_info::__equal(std::type_info const&) const
                0x08001402                std::type_info::operator==(std::type_info const&) const
 .text._ZNKSt9type_info10__do_catchEPKS_PPvj
                0x0800142e        0x4 /usr/bin/../lib/gcc/arm-none-eabi/12.3.1/../../../../arm-none-eabi/lib/thumb/v7e-m+fp/hard/libstdc++_nano.a(tinfo.o)
                0x0800142e                std::type_info::__do_catch(std::type_info const*, void**, unsigned int) const
 .text.__aeabi_atexit
                0x08001432        0xa /usr/bin/../lib/gcc/arm-none-eabi/12.3.1/../../../../arm-none-eabi/lib/thumb/v7e-m+fp/hard/libstdc++_nano.a(atexit_arm.o)
                0x08001432                __aeabi_atexit
 .text._ZNK10__cxxabiv117__class_type_info11__do_upcastEPKS0_PPv
                0x0800143c       0x32 /usr/bin/../lib/gcc/arm-none-eabi/12.3.1/../../../../arm-none-eabi/lib/thumb/v7e-m+fp/hard/libstdc++_nano.a(class_type_info.o)
                0x0800143c                __cxxabiv1::__class_type_info::__do_upcast(__cxxabiv1::__class_type_info const*, void**) const
 .text._ZNK10__cxxabiv117__class_type_info20__do_find_public_srcEiPKvPKS0_S2_
                0x0800146e        0xc /usr/bin/../lib/gcc/arm-none-eabi/12.3.1/../../../../arm-none-eabi/lib/thumb/v7e-m+fp/hard/libstdc++_nano.a(class_type_info.o)
                0x0800146e                __cxxabiv1::__class_type_info::__do_find_public_src(int, void const*, __cxxabiv1::__class_type_info const*, void const*) const
 *fill*         0x0800147a        0x2 
 .text._ZN10__cxxabiv117__class_type_infoD2Ev
                0x0800147c       0x14 /usr/bin/../lib/gcc/arm-none-eabi/12.3.1/../../../../arm-none-eabi/lib/thumb/v7e-m+fp/hard/libstdc++_nano.a(class_type_info.o)
                0x0800147c                __cxxabiv1::__class_type_info::~__class_type_info()
                0x0800147c                __cxxabiv1::__class_type_info::~__class_type_info()
 .text._ZN10__cxxabiv117__class_type_infoD0Ev
                0x08001490       0x14 /usr/bin/../lib/gcc/arm-none-eabi/12.3.1/../../../../arm-none-eabi/lib/thumb/v7e-m+fp/hard/libstdc++_nano.a(class_type_info.o)
                0x08001490                __cxxabiv1::__class_type_info::~__class_type_info()
 .text._ZNK10__cxxabiv117__class_type_info12__do_dyncastEiNS0_10__sub_kindEPKS0_PKvS3_S5_RNS0_16__dyncast_resultE
                0x080014a4       0x3e /usr/bin/../lib/gcc/arm-none-eabi/12.3.1/../../../../arm-none-eabi/lib/thumb/v7e-m+fp/hard/libstdc++_nano.a(class_type_info.o)
                0x080014a4                __cxxabiv1::__class_type_info::__do_dyncast(int, __cxxabiv1::__class_type_info::__sub_kind, __cxxabiv1::__class_type_info const*, void const*, __cxxabiv1::__class_type_info const*, void const*, __cxxabiv1::__class_type_info::__dyncast_result&) const
 .text._ZNK10__cxxabiv117__class_type_info11__do_upcastEPKS0_PKvRNS0_15__upcast_resultE
                0x080014e2       0x18 /usr/bin/../lib/gcc/arm-none-eabi/12.3.1/../../../../arm-none-eabi/lib/thumb/v7e-m+fp/hard/libstdc++_nano.a(class_type_info.o)
                0x080014e2                __cxxabiv1::__class_type_info::__do_upcast(__cxxabiv1::__class_type_info const*, void const*, __cxxabiv1::__class_type_info::__upcast_result&) const
 .text._ZNK10__cxxabiv117__class_type_info10__do_catchEPKSt9type_infoPPvj
                0x080014fa       0x2a /usr/bin/../lib/gcc/arm-none-eabi/12.3.1/../../../../arm-none-eabi/lib/thumb/v7e-m+fp/hard/libstdc++_nano.a(class_type_info.o)
                0x080014fa                __cxxabiv1::__class_type_info::__do_catch(std::type_info const*, void**, unsigned int) const
 .text._ZdlPvj  0x08001524        0x4 /usr/bin/../lib/gcc/arm-none-eabi/12.3.1/../../../../arm-none-eabi/lib/thumb/v7e-m+fp/hard/libstdc++_nano.a(del_ops.o)
                0x08001524                operator delete(void*, unsigned int)
 .text._ZdlPv   0x08001528        0x4 /usr/bin/../lib/gcc/arm-none-eabi/12.3.1/../../../../arm-none-eabi/lib/thumb/v7e-m+fp/hard/libstdc++_nano.a(del_op.o)
                0x08001528                operator delete(void*)
 .text.exit     0x0800152c       0x24 /usr/bin/../lib/gcc/arm-none-eabi/12.3.1/../../../../arm-none-eabi/lib/thumb/v7e-m+fp/hard/libc_nano.a(libc_a-exit.o)
                0x0800152c                exit
 .text.__libc_init_array
                0x08001550       0x48 /usr/bin/../lib/gcc/arm-none-eabi/12.3.1/../../../../arm-none-eabi/lib/thumb/v7e-m+fp/hard/libc_nano.a(libc_a-init.o)
                0x08001550                __libc_init_array
 .text.malloc   0x08001598       0x10 /usr/bin/../lib/gcc/arm-none-eabi/12.3.1/../../../../arm-none-eabi/lib/thumb/v7e-m+fp/hard/libc_nano.a(libc_a-malloc.o)
                0x08001598                malloc
 .text.free     0x080015a8       0x10 /usr/bin/../lib/gcc/arm-none-eabi/12.3.1/../../../../arm-none-eabi/lib/thumb/v7e-m+fp/hard/libc_nano.a(libc_a-malloc.o)
                0x080015a8                free
 .text.sbrk_aligned
                0x080015b8       0x44 /usr/bin/../lib/gcc/arm-none-eabi/12.3.1/../../../../arm-none-eabi/lib/thumb/v7e-m+fp/hard/libc_nano.a(libc_a-mallocr.o)
 .text._malloc_r
                0x080015fc      0x100 /usr/bin/../lib/gcc/arm-none-eabi/12.3.1/../../../../arm-none-eabi/lib/thumb/v7e-m+fp/hard/libc_nano.a(libc_a-mallocr.o)
                0x080015fc                _malloc_r
 .text.abort    0x080016fc        0xe /usr/bin/../lib/gcc/arm-none-eabi/12.3.1/../../../../arm-none-eabi/lib/thumb/v7e-m+fp/hard/libc_nano.a(libc_a-abort.o)
                0x080016fc                abort
 *fill*         0x0800170a        0x2 
 .text.__cxa_atexit
                0x0800170c       0x1c /usr/bin/../lib/gcc/arm-none-eabi/12.3.1/../../../../arm-none-eabi/lib/thumb/v7e-m+fp/hard/libc_nano.a(libc_a-cxa_atexit.o)
                0x0800170c                __cxa_atexit
 .text.std      0x08001728       0x6c /usr/bin/../lib/gcc/arm-none-eabi/12.3.1/../../../../arm-none-eabi/lib/thumb/v7e-m+fp/hard/libc_nano.a(libc_a-findfp.o)
 .text.stdio_exit_handler
                0x08001794       0x18 /usr/bin/../lib/gcc/arm-none-eabi/12.3.1/../../../../arm-none-eabi/lib/thumb/v7e-m+fp/hard/libc_nano.a(libc_a-findfp.o)
 .text.cleanup_stdio
                0x080017ac       0x40 /usr/bin/../lib/gcc/arm-none-eabi/12.3.1/../../../../arm-none-eabi/lib/thumb/v7e-m+fp/hard/libc_nano.a(libc_a-findfp.o)
 .text.__fp_lock
                0x080017ec       0x18 /usr/bin/../lib/gcc/arm-none-eabi/12.3.1/../../../../arm-none-eabi/lib/thumb/v7e-m+fp/hard/libc_nano.a(libc_a-findfp.o)
 .text.__fp_unlock
                0x08001804       0x18 /usr/bin/../lib/gcc/arm-none-eabi/12.3.1/../../../../arm-none-eabi/lib/thumb/v7e-m+fp/hard/libc_nano.a(libc_a-findfp.o)
 .text.global_stdio_init.part.0
                0x0800181c       0x3c /usr/bin/../lib/gcc/arm-none-eabi/12.3.1/../../../../arm-none-eabi/lib/thumb/v7e-m+fp/hard/libc_nano.a(libc_a-findfp.o)
 .text.__sfp_lock_acquire
                0x08001858        0xc /usr/bin/../lib/gcc/arm-none-eabi/12.3.1/../../../../arm-none-eabi/lib/thumb/v7e-m+fp/hard/libc_nano.a(libc_a-findfp.o)
                0x08001858                __sfp_lock_acquire
 .text.__sfp_lock_release
                0x08001864        0xc /usr/bin/../lib/gcc/arm-none-eabi/12.3.1/../../../../arm-none-eabi/lib/thumb/v7e-m+fp/hard/libc_nano.a(libc_a-findfp.o)
                0x08001864                __sfp_lock_release
 .text.__sfp    0x08001870       0xa4 /usr/bin/../lib/gcc/arm-none-eabi/12.3.1/../../../../arm-none-eabi/lib/thumb/v7e-m+fp/hard/libc_nano.a(libc_a-findfp.o)
                0x08001870                __sfp
 .text.__sinit  0x08001914       0x30 /usr/bin/../lib/gcc/arm-none-eabi/12.3.1/../../../../arm-none-eabi/lib/thumb/v7e-m+fp/hard/libc_nano.a(libc_a-findfp.o)
                0x08001914                __sinit
 .text.__fp_lock_all
                0x08001944       0x1c /usr/bin/../lib/gcc/arm-none-eabi/12.3.1/../../../../arm-none-eabi/lib/thumb/v7e-m+fp/hard/libc_nano.a(libc_a-findfp.o)
                0x08001944                __fp_lock_all
 .text.__fp_unlock_all
                0x08001960       0x1c /usr/bin/../lib/gcc/arm-none-eabi/12.3.1/../../../../arm-none-eabi/lib/thumb/v7e-m+fp/hard/libc_nano.a(libc_a-findfp.o)
                0x08001960                __fp_unlock_all
 .text.__sread  0x0800197c       0x22 /usr/bin/../lib/gcc/arm-none-eabi/12.3.1/../../../../arm-none-eabi/lib/thumb/v7e-m+fp/hard/libc_nano.a(libc_a-stdio.o)
                0x0800197c                __sread
 .text.__seofread
                0x0800199e        0x4 /usr/bin/../lib/gcc/arm-none-eabi/12.3.1/../../../../arm-none-eabi/lib/thumb/v7e-m+fp/hard/libc_nano.a(libc_a-stdio.o)
                0x0800199e                __seofread
 .text.__swrite
                0x080019a2       0x38 /usr/bin/../lib/gcc/arm-none-eabi/12.3.1/../../../../arm-none-eabi/lib/thumb/v7e-m+fp/hard/libc_nano.a(libc_a-stdio.o)
                0x080019a2                __swrite
 .text.__sseek  0x080019da       0x24 /usr/bin/../lib/gcc/arm-none-eabi/12.3.1/../../../../arm-none-eabi/lib/thumb/v7e-m+fp/hard/libc_nano.a(libc_a-stdio.o)
                0x080019da                __sseek
 .text.__sclose
                0x080019fe        0x8 /usr/bin/../lib/gcc/arm-none-eabi/12.3.1/../../../../arm-none-eabi/lib/thumb/v7e-m+fp/hard/libc_nano.a(libc_a-stdio.o)
                0x080019fe                __sclose
 *fill*         0x08001a06        0x2 
 .text.__malloc_lock
                0x08001a08        0xc /usr/bin/../lib/gcc/arm-none-eabi/12.3.1/../../../../arm-none-eabi/lib/thumb/v7e-m+fp/hard/libc_nano.a(libc_a-mlock.o)
                0x08001a08                __malloc_lock
 .text.__malloc_unlock
                0x08001a14        0xc /usr/bin/../lib/gcc/arm-none-eabi/12.3.1/../../../../arm-none-eabi/lib/thumb/v7e-m+fp/hard/libc_nano.a(libc_a-mlock.o)
                0x08001a14                __malloc_unlock
 .text._sbrk_r  0x08001a20       0x20 /usr/bin/../lib/gcc/arm-none-eabi/12.3.1/../../../../arm-none-eabi/lib/thumb/v7e-m+fp/hard/libc_nano.a(libc_a-sbrkr.o)
                0x08001a20                _sbrk_r
 .text._write_r
                0x08001a40       0x24 /usr/bin/../lib/gcc/arm-none-eabi/12.3.1/../../../../arm-none-eabi/lib/thumb/v7e-m+fp/hard/libc_nano.a(libc_a-writer.o)
                0x08001a40                _write_r
 .text.__errno  0x08001a64        0xc /usr/bin/../lib/gcc/arm-none-eabi/12.3.1/../../../../arm-none-eabi/lib/thumb/v7e-m+fp/hard/libc_nano.a(libc_a-errno.o)
                0x08001a64                __errno
 .text._fwalk_sglue
                0x08001a70       0x3c /usr/bin/../lib/gcc/arm-none-eabi/12.3.1/../../../../arm-none-eabi/lib/thumb/v7e-m+fp/hard/libc_nano.a(libc_a-fwalk.o)
                0x08001a70                _fwalk_sglue
 .text.memset   0x08001aac       0x10 /usr/bin/../lib/gcc/arm-none-eabi/12.3.1/../../../../arm-none-eabi/lib/thumb/v7e-m+fp/hard/libc_nano.a(libc_a-memset.o)
                0x08001aac                memset
 .text._free_r  0x08001abc       0x94 /usr/bin/../lib/gcc/arm-none-eabi/12.3.1/../../../../arm-none-eabi/lib/thumb/v7e-m+fp/hard/libc_nano.a(libc_a-freer.o)
                0x08001abc                _free_r
 .text.__retarget_lock_init
                0x08001b50        0x2 /usr/bin/../lib/gcc/arm-none-eabi/12.3.1/../../../../arm-none-eabi/lib/thumb/v7e-m+fp/hard/libc_nano.a(libc_a-lock.o)
                0x08001b50                __retarget_lock_init
 .text.__retarget_lock_init_recursive
                0x08001b52        0x2 /usr/bin/../lib/gcc/arm-none-eabi/12.3.1/../../../../arm-none-eabi/lib/thumb/v7e-m+fp/hard/libc_nano.a(libc_a-lock.o)
                0x08001b52                __retarget_lock_init_recursive
 .text.__retarget_lock_close
                0x08001b54        0x2 /usr/bin/../lib/gcc/arm-none-eabi/12.3.1/../../../../arm-none-eabi/lib/thumb/v7e-m+fp/hard/libc_nano.a(libc_a-lock.o)
                0x08001b54                __retarget_lock_close
 .text.__retarget_lock_close_recursive
                0x08001b56        0x2 /usr/bin/../lib/gcc/arm-none-eabi/12.3.1/../../../../arm-none-eabi/lib/thumb/v7e-m+fp/hard/libc_nano.a(libc_a-lock.o)
                0x08001b56                __retarget_lock_close_recursive
 .text.__retarget_lock_acquire
                0x08001b58        0x2 /usr/bin/../lib/gcc/arm-none-eabi/12.3.1/../../../../arm-none-eabi/lib/thumb/v7e-m+fp/hard/libc_nano.a(libc_a-lock.o)
                0x08001b58                __retarget_lock_acquire
 .text.__retarget_lock_acquire_recursive
                0x08001b5a        0x2 /usr/bin/../lib/gcc/arm-none-eabi/12.3.1/../../../../arm-none-eabi/lib/thumb/v7e-m+fp/hard/libc_nano.a(libc_a-lock.o)
                0x08001b5a                __retarget_lock_acquire_recursive
 .text.__retarget_lock_try_acquire
                0x08001b5c        0x4 /usr/bin/../lib/gcc/arm-none-eabi/12.3.1/../../../../arm-none-eabi/lib/thumb/v7e-m+fp/hard/libc_nano.a(libc_a-lock.o)
                0x08001b5c                __retarget_lock_try_acquire
 .text.__retarget_lock_try_acquire_recursive
                0x08001b60        0x4 /usr/bin/../lib/gcc/arm-none-eabi/12.3.1/../../../../arm-none-eabi/lib/thumb/v7e-m+fp/hard/libc_nano.a(libc_a-lock.o)
                0x08001b60                __retarget_lock_try_acquire_recursive
 .text.__retarget_lock_release
                0x08001b64        0x2 /usr/bin/../lib/gcc/arm-none-eabi/12.3.1/../../../../arm-none-eabi/lib/thumb/v7e-m+fp/hard/libc_nano.a(libc_a-lock.o)
                0x08001b64                __retarget_lock_release
 .text.__retarget_lock_release_recursive
                0x08001b66        0x2 /usr/bin/../lib/gcc/arm-none-eabi/12.3.1/../../../../arm-none-eabi/lib/thumb/v7e-m+fp/hard/libc_nano.a(libc_a-lock.o)
                0x08001b66                __retarget_lock_release_recursive
 .text._close_r
                0x08001b68       0x20 /usr/bin/../lib/gcc/arm-none-eabi/12.3.1/../../../../arm-none-eabi/lib/thumb/v7e-m+fp/hard/libc_nano.a(libc_a-closer.o)
                0x08001b68                _close_r
 .text._reclaim_reent
                0x08001b88       0xac /usr/bin/../lib/gcc/arm-none-eabi/12.3.1/../../../../arm-none-eabi/lib/thumb/v7e-m+fp/hard/libc_nano.a(libc_a-reent.o)
                0x08001b88                _reclaim_reent
 .text.__sflush_r
                0x08001c34      0x108 /usr/bin/../lib/gcc/arm-none-eabi/12.3.1/../../../../arm-none-eabi/lib/thumb/v7e-m+fp/hard/libc_nano.a(libc_a-fflush.o)
                0x08001c34                __sflush_r
 .text._fflush_r
                0x08001d3c       0x50 /usr/bin/../lib/gcc/arm-none-eabi/12.3.1/../../../../arm-none-eabi/lib/thumb/v7e-m+fp/hard/libc_nano.a(libc_a-fflush.o)
                0x08001d3c                _fflush_r
 .text.fflush   0x08001d8c       0x28 /usr/bin/../lib/gcc/arm-none-eabi/12.3.1/../../../../arm-none-eabi/lib/thumb/v7e-m+fp/hard/libc_nano.a(libc_a-fflush.o)
                0x08001d8c                fflush
 .text._init_signal_r
                0x08001db4       0x28 /usr/bin/../lib/gcc/arm-none-eabi/12.3.1/../../../../arm-none-eabi/lib/thumb/v7e-m+fp/hard/libc_nano.a(libc_a-signal.o)
                0x08001db4                _init_signal_r
 .text._signal_r
                0x08001ddc       0x30 /usr/bin/../lib/gcc/arm-none-eabi/12.3.1/../../../../arm-none-eabi/lib/thumb/v7e-m+fp/hard/libc_nano.a(libc_a-signal.o)
                0x08001ddc                _signal_r
 .text._raise_r
                0x08001e0c       0x50 /usr/bin/../lib/gcc/arm-none-eabi/12.3.1/../../../../arm-none-eabi/lib/thumb/v7e-m+fp/hard/libc_nano.a(libc_a-signal.o)
                0x08001e0c                _raise_r
 .text.__sigtramp_r
                0x08001e5c       0x48 /usr/bin/../lib/gcc/arm-none-eabi/12.3.1/../../../../arm-none-eabi/lib/thumb/v7e-m+fp/hard/libc_nano.a(libc_a-signal.o)
                0x08001e5c                __sigtramp_r
 .text.raise    0x08001ea4       0x10 /usr/bin/../lib/gcc/arm-none-eabi/12.3.1/../../../../arm-none-eabi/lib/thumb/v7e-m+fp/hard/libc_nano.a(libc_a-signal.o)
                0x08001ea4                raise
 .text.signal   0x08001eb4       0x10 /usr/bin/../lib/gcc/arm-none-eabi/12.3.1/../../../../arm-none-eabi/lib/thumb/v7e-m+fp/hard/libc_nano.a(libc_a-signal.o)
                0x08001eb4                signal
 .text._init_signal
                0x08001ec4        0xc /usr/bin/../lib/gcc/arm-none-eabi/12.3.1/../../../../arm-none-eabi/lib/thumb/v7e-m+fp/hard/libc_nano.a(libc_a-signal.o)
                0x08001ec4                _init_signal
 .text.__sigtramp
                0x08001ed0       0x10 /usr/bin/../lib/gcc/arm-none-eabi/12.3.1/../../../../arm-none-eabi/lib/thumb/v7e-m+fp/hard/libc_nano.a(libc_a-signal.o)
                0x08001ed0                __sigtramp
 .text._lseek_r
                0x08001ee0       0x24 /usr/bin/../lib/gcc/arm-none-eabi/12.3.1/../../../../arm-none-eabi/lib/thumb/v7e-m+fp/hard/libc_nano.a(libc_a-lseekr.o)
                0x08001ee0                _lseek_r
 .text._read_r  0x08001f04       0x24 /usr/bin/../lib/gcc/arm-none-eabi/12.3.1/../../../../arm-none-eabi/lib/thumb/v7e-m+fp/hard/libc_nano.a(libc_a-readr.o)
                0x08001f04                _read_r
 .text._kill_r  0x08001f28       0x24 /usr/bin/../lib/gcc/arm-none-eabi/12.3.1/../../../../arm-none-eabi/lib/thumb/v7e-m+fp/hard/libc_nano.a(libc_a-signalr.o)
                0x08001f28                _kill_r
 .text._getpid_r
                0x08001f4c        0x4 /usr/bin/../lib/gcc/arm-none-eabi/12.3.1/../../../../arm-none-eabi/lib/thumb/v7e-m+fp/hard/libc_nano.a(libc_a-signalr.o)
                0x08001f4c                _getpid_r
 .text.selfrel_offset31
                0x08001f50       0x14 /usr/bin/../lib/gcc/arm-none-eabi/12.3.1/thumb/v7e-m+fp/hard/libgcc.a(unwind-arm.o)
 .text.search_EIT_table
                0x08001f64       0x64 /usr/bin/../lib/gcc/arm-none-eabi/12.3.1/thumb/v7e-m+fp/hard/libgcc.a(unwind-arm.o)
 .text.__gnu_unwind_get_pr_addr
                0x08001fc8       0x28 /usr/bin/../lib/gcc/arm-none-eabi/12.3.1/thumb/v7e-m+fp/hard/libgcc.a(unwind-arm.o)
 .text.get_eit_entry
                0x08001ff0       0x94 /usr/bin/../lib/gcc/arm-none-eabi/12.3.1/thumb/v7e-m+fp/hard/libgcc.a(unwind-arm.o)
 .text.restore_non_core_regs
                0x08002084       0x58 /usr/bin/../lib/gcc/arm-none-eabi/12.3.1/thumb/v7e-m+fp/hard/libgcc.a(unwind-arm.o)
 .text.__gnu_unwind_24bit.constprop.0
                0x080020dc        0x4 /usr/bin/../lib/gcc/arm-none-eabi/12.3.1/thumb/v7e-m+fp/hard/libgcc.a(unwind-arm.o)
 .text._Unwind_decode_typeinfo_ptr.constprop.0
                0x080020e0        0xc /usr/bin/../lib/gcc/arm-none-eabi/12.3.1/thumb/v7e-m+fp/hard/libgcc.a(unwind-arm.o)
 .text._Unwind_DebugHook
                0x080020ec        0x4 /usr/bin/../lib/gcc/arm-none-eabi/12.3.1/thumb/v7e-m+fp/hard/libgcc.a(unwind-arm.o)
 .text.unwind_phase2
                0x080020f0       0x38 /usr/bin/../lib/gcc/arm-none-eabi/12.3.1/thumb/v7e-m+fp/hard/libgcc.a(unwind-arm.o)
 .text.unwind_phase2_forced
                0x08002128       0xd4 /usr/bin/../lib/gcc/arm-none-eabi/12.3.1/thumb/v7e-m+fp/hard/libgcc.a(unwind-arm.o)
 .text._Unwind_GetCFA
                0x080021fc        0x4 /usr/bin/../lib/gcc/arm-none-eabi/12.3.1/thumb/v7e-m+fp/hard/libgcc.a(unwind-arm.o)
                0x080021fc                _Unwind_GetCFA
 .text.__gnu_Unwind_RaiseException
                0x08002200       0x68 /usr/bin/../lib/gcc/arm-none-eabi/12.3.1/thumb/v7e-m+fp/hard/libgcc.a(unwind-arm.o)
                0x08002200                __gnu_Unwind_RaiseException
 .text.__gnu_Unwind_ForcedUnwind
                0x08002268       0x10 /usr/bin/../lib/gcc/arm-none-eabi/12.3.1/thumb/v7e-m+fp/hard/libgcc.a(unwind-arm.o)
                0x08002268                __gnu_Unwind_ForcedUnwind
 .text.__gnu_Unwind_Resume
                0x08002278       0x40 /usr/bin/../lib/gcc/arm-none-eabi/12.3.1/thumb/v7e-m+fp/hard/libgcc.a(unwind-arm.o)
                0x08002278                __gnu_Unwind_Resume
 .text.__gnu_Unwind_Resume_or_Rethrow
                0x080022b8       0x14 /usr/bin/../lib/gcc/arm-none-eabi/12.3.1/thumb/v7e-m+fp/hard/libgcc.a(unwind-arm.o)
                0x080022b8                __gnu_Unwind_Resume_or_Rethrow
 .text._Unwind_Complete
                0x080022cc        0x4 /usr/bin/../lib/gcc/arm-none-eabi/12.3.1/thumb/v7e-m+fp/hard/libgcc.a(unwind-arm.o)
                0x080022cc                _Unwind_Complete
 .text._Unwind_DeleteException
                0x080022d0        0xc /usr/bin/../lib/gcc/arm-none-eabi/12.3.1/thumb/v7e-m+fp/hard/libgcc.a(unwind-arm.o)
                0x080022d0                _Unwind_DeleteException
 .text._Unwind_VRS_Get
                0x080022dc       0x30 /usr/bin/../lib/gcc/arm-none-eabi/12.3.1/thumb/v7e-m+fp/hard/libgcc.a(unwind-arm.o)
                0x080022dc                _Unwind_VRS_Get
 .text._Unwind_GetGR
                0x0800230c       0x1c /usr/bin/../lib/gcc/arm-none-eabi/12.3.1/thumb/v7e-m+fp/hard/libgcc.a(unwind-arm.o)
 .text._Unwind_VRS_Set
                0x08002328       0x30 /usr/bin/../lib/gcc/arm-none-eabi/12.3.1/thumb/v7e-m+fp/hard/libgcc.a(unwind-arm.o)
                0x08002328                _Unwind_VRS_Set
 .text._Unwind_SetGR
                0x08002358       0x18 /usr/bin/../lib/gcc/arm-none-eabi/12.3.1/thumb/v7e-m+fp/hard/libgcc.a(unwind-arm.o)
 .text.__gnu_Unwind_Backtrace
                0x08002370       0x84 /usr/bin/../lib/gcc/arm-none-eabi/12.3.1/thumb/v7e-m+fp/hard/libgcc.a(unwind-arm.o)
                0x08002370                __gnu_Unwind_Backtrace
 .text.__gnu_unwind_pr_common
                0x080023f4      0x298 /usr/bin/../lib/gcc/arm-none-eabi/12.3.1/thumb/v7e-m+fp/hard/libgcc.a(unwind-arm.o)
 .text.__aeabi_unwind_cpp_pr0
                0x0800268c        0x8 /usr/bin/../lib/gcc/arm-none-eabi/12.3.1/thumb/v7e-m+fp/hard/libgcc.a(unwind-arm.o)
                0x0800268c                __aeabi_unwind_cpp_pr0
 .text.__aeabi_unwind_cpp_pr1
                0x08002694        0x8 /usr/bin/../lib/gcc/arm-none-eabi/12.3.1/thumb/v7e-m+fp/hard/libgcc.a(unwind-arm.o)
                0x08002694                __aeabi_unwind_cpp_pr1
 .text.__aeabi_unwind_cpp_pr2
                0x0800269c        0x8 /usr/bin/../lib/gcc/arm-none-eabi/12.3.1/thumb/v7e-m+fp/hard/libgcc.a(unwind-arm.o)
                0x0800269c                __aeabi_unwind_cpp_pr2
 .text._Unwind_VRS_Pop
                0x080026a4      0x2a8 /usr/bin/../lib/gcc/arm-none-eabi/12.3.1/thumb/v7e-m+fp/hard/libgcc.a(unwind-arm.o)
                0x080026a4                _Unwind_VRS_Pop
 .text.next_unwind_byte
                0x0800294c       0x38 /usr/bin/../lib/gcc/arm-none-eabi/12.3.1/thumb/v7e-m+fp/hard/libgcc.a(pr-support.o)
 .text._Unwind_GetGR.constprop.0
                0x08002984       0x1c /usr/bin/../lib/gcc/arm-none-eabi/12.3.1/thumb/v7e-m+fp/hard/libgcc.a(pr-support.o)
 .text.unwind_UCB_from_context
                0x080029a0        0x4 /usr/bin/../lib/gcc/arm-none-eabi/12.3.1/thumb/v7e-m+fp/hard/libgcc.a(pr-support.o)
 .text.__gnu_unwind_execute
                0x080029a4      0x2d4 /usr/bin/../lib/gcc/arm-none-eabi/12.3.1/thumb/v7e-m+fp/hard/libgcc.a(pr-support.o)
                0x080029a4                __gnu_unwind_execute
 .text.__gnu_unwind_frame
                0x08002c78       0x2c /usr/bin/../lib/gcc/arm-none-eabi/12.3.1/thumb/v7e-m+fp/hard/libgcc.a(pr-support.o)
                0x08002c78                __gnu_unwind_frame
 .text._Unwind_GetRegionStart
                0x08002ca4        0xc /usr/bin/../lib/gcc/arm-none-eabi/12.3.1/thumb/v7e-m+fp/hard/libgcc.a(pr-support.o)
                0x08002ca4                _Unwind_GetRegionStart
 .text._Unwind_GetLanguageSpecificData
                0x08002cb0       0x14 /usr/bin/../lib/gcc/arm-none-eabi/12.3.1/thumb/v7e-m+fp/hard/libgcc.a(pr-support.o)
                0x08002cb0                _Unwind_GetLanguageSpecificData
 .text.unlikely._Unwind_GetDataRelBase
                0x08002cc4        0x6 /usr/bin/../lib/gcc/arm-none-eabi/12.3.1/thumb/v7e-m+fp/hard/libgcc.a(pr-support.o)
                0x08002cc4                _Unwind_GetDataRelBase
 .text.unlikely._Unwind_GetTextRelBase
                0x08002cca        0x6 /usr/bin/../lib/gcc/arm-none-eabi/12.3.1/thumb/v7e-m+fp/hard/libgcc.a(pr-support.o)
                0x08002cca                _Unwind_GetTextRelBase
 .text.memcpy   0x08002cd0       0x1c /usr/bin/../lib/gcc/arm-none-eabi/12.3.1/../../../../arm-none-eabi/lib/thumb/v7e-m+fp/hard/libc_nano.a(libc_a-memcpy-stub.o)
                0x08002cd0                memcpy
 *(.glue_7)
 .glue_7        0x08002cec        0x0 linker stubs
 *(.glue_7t)
 .glue_7t       0x08002cec        0x0 linker stubs
 *(.eh_frame)
 .eh_frame      0x08002cec        0x0 /usr/bin/../lib/gcc/arm-none-eabi/12.3.1/thumb/v7e-m+fp/hard/crtbegin.o
 .eh_frame      0x08002cec        0x4 /usr/bin/../lib/gcc/arm-none-eabi/12.3.1/thumb/v7e-m+fp/hard/crtend.o
 *(.init)
 .init          0x08002cf0        0x4 /usr/bin/../lib/gcc/arm-none-eabi/12.3.1/thumb/v7e-m+fp/hard/crti.o
                0x08002cf0                _init
 .init          0x08002cf4        0x8 /usr/bin/../lib/gcc/arm-none-eabi/12.3.1/thumb/v7e-m+fp/hard/crtn.o
 *(.fini)
 .fini          0x08002cfc        0x4 /usr/bin/../lib/gcc/arm-none-eabi/12.3.1/thumb/v7e-m+fp/hard/crti.o
                0x08002cfc                _fini
 .fini          0x08002d00        0x8 /usr/bin/../lib/gcc/arm-none-eabi/12.3.1/thumb/v7e-m+fp/hard/crtn.o
                0x08002d08                        . = ALIGN (0x4)
                0x08002d08                        _etext = .

.vfp11_veneer   0x08002d08        0x0
 .vfp11_veneer  0x08002d08        0x0 linker stubs

.v4_bx          0x08002d08        0x0
 .v4_bx         0x08002d08        0x0 linker stubs

.iplt           0x08002d08        0x0
 .iplt          0x08002d08        0x0 /usr/bin/../lib/gcc/arm-none-eabi/12.3.1/thumb/v7e-m+fp/hard/crtbegin.o

.rodata         0x08002d08      0x258
                0x08002d08                        . = ALIGN (0x4)
 *(.rodata)
 *(.rodata*)
 .rodata.all_implied_fbits
                0x08002d08       0x24 /usr/bin/../lib/gcc/arm-none-eabi/12.3.1/thumb/v7e-m+fp/hard/crtbegin.o
 .rodata._ZTV15InputPinHandlerIA2_PVmE
                0x08002d2c        0xc ../../Build/m7/m7/main_m7.o
                0x08002d2c                vtable for InputPinHandler<unsigned long volatile* [2]>
 .rodata._ZTV21PeripheralHandlerBaseIN5Utils8TypeListIJ4pairIL18InputPinProperties0EbES2_ILS3_1EiEEEEA2_PVm15InputPinHandlerIS9_EE
                0x08002d38        0xc ../../Build/m7/m7/main_m7.o
                0x08002d38                vtable for PeripheralHandlerBase<Utils::TypeList<pair<(InputPinProperties)0, bool>, pair<(InputPinProperties)1, int> >, unsigned long volatile* [2], InputPinHandler<unsigned long volatile* [2]> >
 .rodata._ZNKSt9exception4whatEv.str1.1
                0x08002d44        0xf /usr/bin/../lib/gcc/arm-none-eabi/12.3.1/../../../../arm-none-eabi/lib/thumb/v7e-m+fp/hard/libstdc++_nano.a(eh_exception.o)
 .rodata._ZNKSt13bad_exception4whatEv.str1.1
                0x08002d53       0x13 /usr/bin/../lib/gcc/arm-none-eabi/12.3.1/../../../../arm-none-eabi/lib/thumb/v7e-m+fp/hard/libstdc++_nano.a(eh_exception.o)
 .rodata._ZTSSt9exception
                0x08002d66        0xd /usr/bin/../lib/gcc/arm-none-eabi/12.3.1/../../../../arm-none-eabi/lib/thumb/v7e-m+fp/hard/libstdc++_nano.a(eh_exception.o)
                0x08002d66                typeinfo name for std::exception
 *fill*         0x08002d73        0x1 
 .rodata._ZTISt9exception
                0x08002d74        0x8 /usr/bin/../lib/gcc/arm-none-eabi/12.3.1/../../../../arm-none-eabi/lib/thumb/v7e-m+fp/hard/libstdc++_nano.a(eh_exception.o)
                0x08002d74                typeinfo for std::exception
 .rodata._ZTSSt13bad_exception
                0x08002d7c       0x12 /usr/bin/../lib/gcc/arm-none-eabi/12.3.1/../../../../arm-none-eabi/lib/thumb/v7e-m+fp/hard/libstdc++_nano.a(eh_exception.o)
                0x08002d7c                typeinfo name for std::bad_exception
 *fill*         0x08002d8e        0x2 
 .rodata._ZTISt13bad_exception
                0x08002d90        0xc /usr/bin/../lib/gcc/arm-none-eabi/12.3.1/../../../../arm-none-eabi/lib/thumb/v7e-m+fp/hard/libstdc++_nano.a(eh_exception.o)
                0x08002d90                typeinfo for std::bad_exception
 .rodata._ZTSN10__cxxabiv115__forced_unwindE
                0x08002d9c       0x20 /usr/bin/../lib/gcc/arm-none-eabi/12.3.1/../../../../arm-none-eabi/lib/thumb/v7e-m+fp/hard/libstdc++_nano.a(eh_exception.o)
                0x08002d9c                typeinfo name for __cxxabiv1::__forced_unwind
 .rodata._ZTIN10__cxxabiv115__forced_unwindE
                0x08002dbc        0x8 /usr/bin/../lib/gcc/arm-none-eabi/12.3.1/../../../../arm-none-eabi/lib/thumb/v7e-m+fp/hard/libstdc++_nano.a(eh_exception.o)
                0x08002dbc                typeinfo for __cxxabiv1::__forced_unwind
 .rodata._ZTSN10__cxxabiv119__foreign_exceptionE
                0x08002dc4       0x24 /usr/bin/../lib/gcc/arm-none-eabi/12.3.1/../../../../arm-none-eabi/lib/thumb/v7e-m+fp/hard/libstdc++_nano.a(eh_exception.o)
                0x08002dc4                typeinfo name for __cxxabiv1::__foreign_exception
 .rodata._ZTIN10__cxxabiv119__foreign_exceptionE
                0x08002de8        0x8 /usr/bin/../lib/gcc/arm-none-eabi/12.3.1/../../../../arm-none-eabi/lib/thumb/v7e-m+fp/hard/libstdc++_nano.a(eh_exception.o)
                0x08002de8                typeinfo for __cxxabiv1::__foreign_exception
 .rodata._ZTVSt9exception
                0x08002df0       0x14 /usr/bin/../lib/gcc/arm-none-eabi/12.3.1/../../../../arm-none-eabi/lib/thumb/v7e-m+fp/hard/libstdc++_nano.a(eh_exception.o)
                0x08002df0                vtable for std::exception
 .rodata._ZTVSt13bad_exception
                0x08002e04       0x14 /usr/bin/../lib/gcc/arm-none-eabi/12.3.1/../../../../arm-none-eabi/lib/thumb/v7e-m+fp/hard/libstdc++_nano.a(eh_exception.o)
                0x08002e04                vtable for std::bad_exception
 .rodata._ZTVN10__cxxabiv115__forced_unwindE
                0x08002e18       0x14 /usr/bin/../lib/gcc/arm-none-eabi/12.3.1/../../../../arm-none-eabi/lib/thumb/v7e-m+fp/hard/libstdc++_nano.a(eh_exception.o)
                0x08002e18                vtable for __cxxabiv1::__forced_unwind
 .rodata._ZTVN10__cxxabiv119__foreign_exceptionE
                0x08002e2c       0x14 /usr/bin/../lib/gcc/arm-none-eabi/12.3.1/../../../../arm-none-eabi/lib/thumb/v7e-m+fp/hard/libstdc++_nano.a(eh_exception.o)
                0x08002e2c                vtable for __cxxabiv1::__foreign_exception
 .rodata._ZTSN10__cxxabiv120__si_class_type_infoE
                0x08002e40       0x25 /usr/bin/../lib/gcc/arm-none-eabi/12.3.1/../../../../arm-none-eabi/lib/thumb/v7e-m+fp/hard/libstdc++_nano.a(si_class_type_info.o)
                0x08002e40                typeinfo name for __cxxabiv1::__si_class_type_info
 *fill*         0x08002e65        0x3 
 .rodata._ZTIN10__cxxabiv120__si_class_type_infoE
                0x08002e68        0xc /usr/bin/../lib/gcc/arm-none-eabi/12.3.1/../../../../arm-none-eabi/lib/thumb/v7e-m+fp/hard/libstdc++_nano.a(si_class_type_info.o)
                0x08002e68                typeinfo for __cxxabiv1::__si_class_type_info
 .rodata._ZTVN10__cxxabiv120__si_class_type_infoE
                0x08002e74       0x2c /usr/bin/../lib/gcc/arm-none-eabi/12.3.1/../../../../arm-none-eabi/lib/thumb/v7e-m+fp/hard/libstdc++_nano.a(si_class_type_info.o)
                0x08002e74                vtable for __cxxabiv1::__si_class_type_info
 .rodata._ZTSSt9type_info
                0x08002ea0        0xd /usr/bin/../lib/gcc/arm-none-eabi/12.3.1/../../../../arm-none-eabi/lib/thumb/v7e-m+fp/hard/libstdc++_nano.a(tinfo.o)
                0x08002ea0                typeinfo name for std::type_info
 *fill*         0x08002ead        0x3 
 .rodata._ZTISt9type_info
                0x08002eb0        0x8 /usr/bin/../lib/gcc/arm-none-eabi/12.3.1/../../../../arm-none-eabi/lib/thumb/v7e-m+fp/hard/libstdc++_nano.a(tinfo.o)
                0x08002eb0                typeinfo for std::type_info
 .rodata._ZTVSt9type_info
                0x08002eb8       0x20 /usr/bin/../lib/gcc/arm-none-eabi/12.3.1/../../../../arm-none-eabi/lib/thumb/v7e-m+fp/hard/libstdc++_nano.a(tinfo.o)
                0x08002eb8                vtable for std::type_info
 .rodata._ZTSN10__cxxabiv117__class_type_infoE
                0x08002ed8       0x22 /usr/bin/../lib/gcc/arm-none-eabi/12.3.1/../../../../arm-none-eabi/lib/thumb/v7e-m+fp/hard/libstdc++_nano.a(class_type_info.o)
                0x08002ed8                typeinfo name for __cxxabiv1::__class_type_info
 *fill*         0x08002efa        0x2 
 .rodata._ZTIN10__cxxabiv117__class_type_infoE
                0x08002efc        0xc /usr/bin/../lib/gcc/arm-none-eabi/12.3.1/../../../../arm-none-eabi/lib/thumb/v7e-m+fp/hard/libstdc++_nano.a(class_type_info.o)
                0x08002efc                typeinfo for __cxxabiv1::__class_type_info
 .rodata._ZTVN10__cxxabiv117__class_type_infoE
                0x08002f08       0x2c /usr/bin/../lib/gcc/arm-none-eabi/12.3.1/../../../../arm-none-eabi/lib/thumb/v7e-m+fp/hard/libstdc++_nano.a(class_type_info.o)
                0x08002f08                vtable for __cxxabiv1::__class_type_info
 .rodata.__cxa_atexit_dummy
                0x08002f34        0x4 /usr/bin/../lib/gcc/arm-none-eabi/12.3.1/../../../../arm-none-eabi/lib/thumb/v7e-m+fp/hard/libc_nano.a(libc_a-cxa_atexit.o)
                0x08002f34                __cxa_atexit_dummy
 .rodata.__on_exit_args
                0x08002f38        0x4 /usr/bin/../lib/gcc/arm-none-eabi/12.3.1/../../../../arm-none-eabi/lib/thumb/v7e-m+fp/hard/libc_nano.a(libc_a-on_exit_args.o)
                0x08002f38                __on_exit_args
 .rodata.all_implied_fbits
                0x08002f3c       0x24 /usr/bin/../lib/gcc/arm-none-eabi/12.3.1/thumb/v7e-m+fp/hard/crtend.o
                0x08002f60                        . = ALIGN (0x4)

.ARM.extab      0x08002f60       0xac
 *(.ARM.extab* .gnu.linkonce.armextab.*)
 .ARM.extab     0x08002f60        0x0 /usr/bin/../lib/gcc/arm-none-eabi/12.3.1/../../../../arm-none-eabi/lib/thumb/v7e-m+fp/hard/crt0.o
 .ARM.extab.text._ZL20__gthread_key_deletei
                0x08002f60        0x0 ../../Build/m7/m7/main_m7.o
 .ARM.extab.text._ZN15InputPinHandlerIA2_PVmEC1ERA2_KS1_
                0x08002f60        0xc ../../Build/m7/m7/main_m7.o
 .ARM.extab.text._ZN21PeripheralHandlerBaseIN5Utils8TypeListIJ4pairIL18InputPinProperties0EbES2_ILS3_1EiEEEEA2_PVm15InputPinHandlerIS9_EEC2Ev
                0x08002f6c        0xc ../../Build/m7/m7/main_m7.o
 .ARM.extab.text._ZN20classMembersWithTagsIJ4pairIL18InputPinProperties0EbES0_ILS1_1EiEEEC1Ev
                0x08002f78        0x0 ../../Build/m7/m7/main_m7.o
 .ARM.extab.text._ZNSt5tupleIJbiEEC1ILb1ELb1EEEv
                0x08002f78       0x10 ../../Build/m7/m7/main_m7.o
 .ARM.extab.text._ZNSt11_Tuple_implILj0EJbiEEC2Ev
                0x08002f88        0xc ../../Build/m7/m7/main_m7.o
 .ARM.extab.text._ZNSt11_Tuple_implILj1EJiEEC2Ev
                0x08002f94        0x0 ../../Build/m7/m7/main_m7.o
 .ARM.extab.text._ZNSt10_Head_baseILj1EiLb0EEC2Ev
                0x08002f94        0x0 ../../Build/m7/m7/main_m7.o
 .ARM.extab.text._ZNSt10_Head_baseILj0EbLb0EEC2Ev
                0x08002f94        0x0 ../../Build/m7/m7/main_m7.o
 .ARM.extab.text.main
                0x08002f94        0x0 ../../Build/m7/m7/main_m7.o
 .ARM.extab.text.SystemInit
                0x08002f94        0x0 ../../Build/m7/m7/main_m7.o
 .ARM.extab.text._ZN21PeripheralHandlerBaseIN5Utils8TypeListIJ4pairIL18InputPinProperties0EbES2_ILS3_1EiEEEEA2_PVm15InputPinHandlerIS9_EED2Ev
                0x08002f94        0x0 ../../Build/m7/m7/main_m7.o
 .ARM.extab.text._ZN15InputPinHandlerIA2_PVmED2Ev
                0x08002f94        0x0 ../../Build/m7/m7/main_m7.o
 .ARM.extab.text._Z41__static_initialization_and_destruction_0ii
                0x08002f94        0x0 ../../Build/m7/m7/main_m7.o
 .ARM.extab.text._ZN15InputPinHandlerIA2_PVmE4tempEv
                0x08002f94        0x0 ../../Build/m7/m7/main_m7.o
 .ARM.extab.text._GLOBAL__sub_I_a
                0x08002f94        0x0 ../../Build/m7/m7/main_m7.o
 .ARM.extab.text._GLOBAL__sub_D_a
                0x08002f94        0x0 ../../Build/m7/m7/main_m7.o
 .ARM.extab.text._sbrk
                0x08002f94        0xc ../../Build/m7/Common/sysmem.o
 .ARM.extab.text.initialise_monitor_handles
                0x08002fa0        0x0 ../../Build/m7/Common/syscalls.o
 .ARM.extab.text._getpid
                0x08002fa0        0x0 ../../Build/m7/Common/syscalls.o
 .ARM.extab.text._kill
                0x08002fa0        0xc ../../Build/m7/Common/syscalls.o
 .ARM.extab.text._exit
                0x08002fac        0x0 ../../Build/m7/Common/syscalls.o
 .ARM.extab.text._read
                0x08002fac        0xc ../../Build/m7/Common/syscalls.o
 .ARM.extab.text._write
                0x08002fb8        0xc ../../Build/m7/Common/syscalls.o
 .ARM.extab.text._close
                0x08002fc4        0x0 ../../Build/m7/Common/syscalls.o
 .ARM.extab.text._fstat
                0x08002fc4        0x0 ../../Build/m7/Common/syscalls.o
 .ARM.extab.text._isatty
                0x08002fc4        0x0 ../../Build/m7/Common/syscalls.o
 .ARM.extab.text._lseek
                0x08002fc4        0x0 ../../Build/m7/Common/syscalls.o
 .ARM.extab.text._open
                0x08002fc4        0x0 ../../Build/m7/Common/syscalls.o
 .ARM.extab.text._wait
                0x08002fc4        0xc ../../Build/m7/Common/syscalls.o
 .ARM.extab.text._unlink
                0x08002fd0        0xc ../../Build/m7/Common/syscalls.o
 .ARM.extab.text._times
                0x08002fdc        0x0 ../../Build/m7/Common/syscalls.o
 .ARM.extab.text._stat
                0x08002fdc        0x0 ../../Build/m7/Common/syscalls.o
 .ARM.extab.text._link
                0x08002fdc        0xc ../../Build/m7/Common/syscalls.o
 .ARM.extab.text._fork
                0x08002fe8        0x0 ../../Build/m7/Common/syscalls.o
 .ARM.extab.text._execve
                0x08002fe8        0xc ../../Build/m7/Common/syscalls.o
 .ARM.extab     0x08002ff4        0x0 /usr/bin/../lib/gcc/arm-none-eabi/12.3.1/../../../../arm-none-eabi/lib/thumb/v7e-m+fp/hard/libc_nano.a(libc_a-strcmp.o)
 .ARM.extab.text.selfrel_offset31
                0x08002ff4        0x0 /usr/bin/../lib/gcc/arm-none-eabi/12.3.1/thumb/v7e-m+fp/hard/libgcc.a(unwind-arm.o)
 .ARM.extab.text.search_EIT_table
                0x08002ff4        0x0 /usr/bin/../lib/gcc/arm-none-eabi/12.3.1/thumb/v7e-m+fp/hard/libgcc.a(unwind-arm.o)
 .ARM.extab.text.__gnu_unwind_get_pr_addr
                0x08002ff4        0x0 /usr/bin/../lib/gcc/arm-none-eabi/12.3.1/thumb/v7e-m+fp/hard/libgcc.a(unwind-arm.o)
 .ARM.extab.text.get_eit_entry
                0x08002ff4        0x0 /usr/bin/../lib/gcc/arm-none-eabi/12.3.1/thumb/v7e-m+fp/hard/libgcc.a(unwind-arm.o)
 .ARM.extab.text.restore_non_core_regs
                0x08002ff4        0x0 /usr/bin/../lib/gcc/arm-none-eabi/12.3.1/thumb/v7e-m+fp/hard/libgcc.a(unwind-arm.o)
 .ARM.extab.text.__gnu_unwind_24bit.constprop.0
                0x08002ff4        0x0 /usr/bin/../lib/gcc/arm-none-eabi/12.3.1/thumb/v7e-m+fp/hard/libgcc.a(unwind-arm.o)
 .ARM.extab.text._Unwind_decode_typeinfo_ptr.constprop.0
                0x08002ff4        0x0 /usr/bin/../lib/gcc/arm-none-eabi/12.3.1/thumb/v7e-m+fp/hard/libgcc.a(unwind-arm.o)
 .ARM.extab.text._Unwind_DebugHook
                0x08002ff4        0x0 /usr/bin/../lib/gcc/arm-none-eabi/12.3.1/thumb/v7e-m+fp/hard/libgcc.a(unwind-arm.o)
 .ARM.extab.text.unwind_phase2
                0x08002ff4        0x0 /usr/bin/../lib/gcc/arm-none-eabi/12.3.1/thumb/v7e-m+fp/hard/libgcc.a(unwind-arm.o)
 .ARM.extab.text.unwind_phase2_forced
                0x08002ff4        0x0 /usr/bin/../lib/gcc/arm-none-eabi/12.3.1/thumb/v7e-m+fp/hard/libgcc.a(unwind-arm.o)
 .ARM.extab.text._Unwind_GetCFA
                0x08002ff4        0x0 /usr/bin/../lib/gcc/arm-none-eabi/12.3.1/thumb/v7e-m+fp/hard/libgcc.a(unwind-arm.o)
 .ARM.extab.text.__gnu_Unwind_RaiseException
                0x08002ff4        0x0 /usr/bin/../lib/gcc/arm-none-eabi/12.3.1/thumb/v7e-m+fp/hard/libgcc.a(unwind-arm.o)
 .ARM.extab.text.__gnu_Unwind_ForcedUnwind
                0x08002ff4        0x0 /usr/bin/../lib/gcc/arm-none-eabi/12.3.1/thumb/v7e-m+fp/hard/libgcc.a(unwind-arm.o)
 .ARM.extab.text.__gnu_Unwind_Resume
                0x08002ff4        0x0 /usr/bin/../lib/gcc/arm-none-eabi/12.3.1/thumb/v7e-m+fp/hard/libgcc.a(unwind-arm.o)
 .ARM.extab.text.__gnu_Unwind_Resume_or_Rethrow
                0x08002ff4        0x0 /usr/bin/../lib/gcc/arm-none-eabi/12.3.1/thumb/v7e-m+fp/hard/libgcc.a(unwind-arm.o)
 .ARM.extab.text._Unwind_Complete
                0x08002ff4        0x0 /usr/bin/../lib/gcc/arm-none-eabi/12.3.1/thumb/v7e-m+fp/hard/libgcc.a(unwind-arm.o)
 .ARM.extab.text._Unwind_DeleteException
                0x08002ff4        0x0 /usr/bin/../lib/gcc/arm-none-eabi/12.3.1/thumb/v7e-m+fp/hard/libgcc.a(unwind-arm.o)
 .ARM.extab.text._Unwind_VRS_Get
                0x08002ff4        0x0 /usr/bin/../lib/gcc/arm-none-eabi/12.3.1/thumb/v7e-m+fp/hard/libgcc.a(unwind-arm.o)
 .ARM.extab.text._Unwind_GetGR
                0x08002ff4        0x0 /usr/bin/../lib/gcc/arm-none-eabi/12.3.1/thumb/v7e-m+fp/hard/libgcc.a(unwind-arm.o)
 .ARM.extab.text._Unwind_VRS_Set
                0x08002ff4        0x0 /usr/bin/../lib/gcc/arm-none-eabi/12.3.1/thumb/v7e-m+fp/hard/libgcc.a(unwind-arm.o)
 .ARM.extab.text._Unwind_SetGR
                0x08002ff4        0x0 /usr/bin/../lib/gcc/arm-none-eabi/12.3.1/thumb/v7e-m+fp/hard/libgcc.a(unwind-arm.o)
 .ARM.extab.text.__gnu_Unwind_Backtrace
                0x08002ff4        0x0 /usr/bin/../lib/gcc/arm-none-eabi/12.3.1/thumb/v7e-m+fp/hard/libgcc.a(unwind-arm.o)
 .ARM.extab.text.__gnu_unwind_pr_common
                0x08002ff4        0x0 /usr/bin/../lib/gcc/arm-none-eabi/12.3.1/thumb/v7e-m+fp/hard/libgcc.a(unwind-arm.o)
 .ARM.extab.text.__aeabi_unwind_cpp_pr0
                0x08002ff4        0x0 /usr/bin/../lib/gcc/arm-none-eabi/12.3.1/thumb/v7e-m+fp/hard/libgcc.a(unwind-arm.o)
 .ARM.extab.text.__aeabi_unwind_cpp_pr1
                0x08002ff4        0x0 /usr/bin/../lib/gcc/arm-none-eabi/12.3.1/thumb/v7e-m+fp/hard/libgcc.a(unwind-arm.o)
 .ARM.extab.text.__aeabi_unwind_cpp_pr2
                0x08002ff4        0x0 /usr/bin/../lib/gcc/arm-none-eabi/12.3.1/thumb/v7e-m+fp/hard/libgcc.a(unwind-arm.o)
 .ARM.extab.text._Unwind_VRS_Pop
                0x08002ff4        0x0 /usr/bin/../lib/gcc/arm-none-eabi/12.3.1/thumb/v7e-m+fp/hard/libgcc.a(unwind-arm.o)
 .ARM.extab.text.next_unwind_byte
                0x08002ff4        0x0 /usr/bin/../lib/gcc/arm-none-eabi/12.3.1/thumb/v7e-m+fp/hard/libgcc.a(pr-support.o)
 .ARM.extab.text._Unwind_GetGR.constprop.0
                0x08002ff4        0x0 /usr/bin/../lib/gcc/arm-none-eabi/12.3.1/thumb/v7e-m+fp/hard/libgcc.a(pr-support.o)
 .ARM.extab.text.unwind_UCB_from_context
                0x08002ff4        0x0 /usr/bin/../lib/gcc/arm-none-eabi/12.3.1/thumb/v7e-m+fp/hard/libgcc.a(pr-support.o)
 .ARM.extab.text.__gnu_unwind_execute
                0x08002ff4        0x0 /usr/bin/../lib/gcc/arm-none-eabi/12.3.1/thumb/v7e-m+fp/hard/libgcc.a(pr-support.o)
 .ARM.extab.text.__gnu_unwind_frame
                0x08002ff4        0x0 /usr/bin/../lib/gcc/arm-none-eabi/12.3.1/thumb/v7e-m+fp/hard/libgcc.a(pr-support.o)
 .ARM.extab.text._Unwind_GetRegionStart
                0x08002ff4        0xc /usr/bin/../lib/gcc/arm-none-eabi/12.3.1/thumb/v7e-m+fp/hard/libgcc.a(pr-support.o)
 .ARM.extab.text._Unwind_GetLanguageSpecificData
                0x08003000        0xc /usr/bin/../lib/gcc/arm-none-eabi/12.3.1/thumb/v7e-m+fp/hard/libgcc.a(pr-support.o)
 .ARM.extab.text.unlikely._Unwind_GetDataRelBase
                0x0800300c        0x0 /usr/bin/../lib/gcc/arm-none-eabi/12.3.1/thumb/v7e-m+fp/hard/libgcc.a(pr-support.o)
 .ARM.extab.text.unlikely._Unwind_GetTextRelBase
                0x0800300c        0x0 /usr/bin/../lib/gcc/arm-none-eabi/12.3.1/thumb/v7e-m+fp/hard/libgcc.a(pr-support.o)

.ARM            0x0800300c      0x158
                0x0800300c                        __exidx_start = .
 *(.ARM.exidx*)
 .ARM.exidx     0x0800300c        0x8 /usr/bin/../lib/gcc/arm-none-eabi/12.3.1/../../../../arm-none-eabi/lib/thumb/v7e-m+fp/hard/crt0.o
                                 0x10 (size before relaxing)
 .ARM.exidx     0x08003014        0x0 /usr/bin/../lib/gcc/arm-none-eabi/12.3.1/../../../../arm-none-eabi/lib/thumb/v7e-m+fp/hard/libc_nano.a(libc_a-strcmp.o)
                                  0x8 (size before relaxing)
 .ARM.exidx.text._ZL20__gthread_key_deletei
                0x08003014        0x0 ../../Build/m7/m7/main_m7.o
                                  0x8 (size before relaxing)
 .ARM.exidx.text._ZN15InputPinHandlerIA2_PVmEC1ERA2_KS1_
                0x08003014        0x8 ../../Build/m7/m7/main_m7.o
 .ARM.exidx.text._ZN21PeripheralHandlerBaseIN5Utils8TypeListIJ4pairIL18InputPinProperties0EbES2_ILS3_1EiEEEEA2_PVm15InputPinHandlerIS9_EEC2Ev
                0x0800301c        0x8 ../../Build/m7/m7/main_m7.o
 .ARM.exidx.text._ZN20classMembersWithTagsIJ4pairIL18InputPinProperties0EbES0_ILS1_1EiEEEC1Ev
                0x08003024        0x8 ../../Build/m7/m7/main_m7.o
 .ARM.exidx.text._ZNSt5tupleIJbiEEC1ILb1ELb1EEEv
                0x0800302c        0x8 ../../Build/m7/m7/main_m7.o
 .ARM.exidx.text._ZNSt11_Tuple_implILj0EJbiEEC2Ev
                0x08003034        0x8 ../../Build/m7/m7/main_m7.o
 .ARM.exidx.text._ZNSt11_Tuple_implILj1EJiEEC2Ev
                0x0800303c        0x8 ../../Build/m7/m7/main_m7.o
 .ARM.exidx.text._ZNSt10_Head_baseILj1EiLb0EEC2Ev
                0x08003044        0x0 ../../Build/m7/m7/main_m7.o
                                  0x8 (size before relaxing)
 .ARM.exidx.text._ZNSt10_Head_baseILj0EbLb0EEC2Ev
                0x08003044        0x0 ../../Build/m7/m7/main_m7.o
                                  0x8 (size before relaxing)
 .ARM.exidx.text.main
                0x08003044        0x0 ../../Build/m7/m7/main_m7.o
                                  0x8 (size before relaxing)
 .ARM.exidx.text.SystemInit
                0x08003044        0x0 ../../Build/m7/m7/main_m7.o
                                  0x8 (size before relaxing)
 .ARM.exidx.text._ZN21PeripheralHandlerBaseIN5Utils8TypeListIJ4pairIL18InputPinProperties0EbES2_ILS3_1EiEEEEA2_PVm15InputPinHandlerIS9_EED2Ev
                0x08003044        0x0 ../../Build/m7/m7/main_m7.o
                                  0x8 (size before relaxing)
 .ARM.exidx.text._ZN15InputPinHandlerIA2_PVmED2Ev
                0x08003044        0x0 ../../Build/m7/m7/main_m7.o
                                  0x8 (size before relaxing)
 .ARM.exidx.text._Z41__static_initialization_and_destruction_0ii
                0x08003044        0x0 ../../Build/m7/m7/main_m7.o
                                  0x8 (size before relaxing)
 .ARM.exidx.text._ZN15InputPinHandlerIA2_PVmE4tempEv
                0x08003044        0x0 ../../Build/m7/m7/main_m7.o
                                  0x8 (size before relaxing)
 .ARM.exidx.text._GLOBAL__sub_I_a
                0x08003044        0x0 ../../Build/m7/m7/main_m7.o
                                  0x8 (size before relaxing)
 .ARM.exidx.text._GLOBAL__sub_D_a
                0x08003044        0x0 ../../Build/m7/m7/main_m7.o
                                  0x8 (size before relaxing)
 .ARM.exidx.text._sbrk
                0x08003044        0x8 ../../Build/m7/Common/sysmem.o
 .ARM.exidx.text.initialise_monitor_handles
                0x0800304c        0x8 ../../Build/m7/Common/syscalls.o
 .ARM.exidx.text._getpid
                0x08003054        0x0 ../../Build/m7/Common/syscalls.o
                                  0x8 (size before relaxing)
 .ARM.exidx.text._kill
                0x08003054        0x8 ../../Build/m7/Common/syscalls.o
 .ARM.exidx.text._exit
                0x0800305c        0x8 ../../Build/m7/Common/syscalls.o
 .ARM.exidx.text._read
                0x08003064        0x8 ../../Build/m7/Common/syscalls.o
 .ARM.exidx.text._write
                0x0800306c        0x8 ../../Build/m7/Common/syscalls.o
 .ARM.exidx.text._close
                0x08003074        0x8 ../../Build/m7/Common/syscalls.o
 .ARM.exidx.text._fstat
                0x0800307c        0x0 ../../Build/m7/Common/syscalls.o
                                  0x8 (size before relaxing)
 .ARM.exidx.text._isatty
                0x0800307c        0x0 ../../Build/m7/Common/syscalls.o
                                  0x8 (size before relaxing)
 .ARM.exidx.text._lseek
                0x0800307c        0x0 ../../Build/m7/Common/syscalls.o
                                  0x8 (size before relaxing)
 .ARM.exidx.text._open
                0x0800307c        0x0 ../../Build/m7/Common/syscalls.o
                                  0x8 (size before relaxing)
 .ARM.exidx.text._wait
                0x0800307c        0x8 ../../Build/m7/Common/syscalls.o
 .ARM.exidx.text._unlink
                0x08003084        0x8 ../../Build/m7/Common/syscalls.o
 .ARM.exidx.text._times
                0x0800308c        0x8 ../../Build/m7/Common/syscalls.o
 .ARM.exidx.text._stat
                0x08003094        0x0 ../../Build/m7/Common/syscalls.o
                                  0x8 (size before relaxing)
 .ARM.exidx.text._link
                0x08003094        0x8 ../../Build/m7/Common/syscalls.o
 .ARM.exidx.text._fork
                0x0800309c        0x8 ../../Build/m7/Common/syscalls.o
 .ARM.exidx.text._execve
                0x080030a4       0x10 ../../Build/m7/Common/syscalls.o
                                  0x8 (size before relaxing)
 .ARM.exidx.text.selfrel_offset31
                0x080030b4        0x0 /usr/bin/../lib/gcc/arm-none-eabi/12.3.1/thumb/v7e-m+fp/hard/libgcc.a(unwind-arm.o)
                                  0x8 (size before relaxing)
 .ARM.exidx.text.search_EIT_table
                0x080030b4        0x0 /usr/bin/../lib/gcc/arm-none-eabi/12.3.1/thumb/v7e-m+fp/hard/libgcc.a(unwind-arm.o)
                                  0x8 (size before relaxing)
 .ARM.exidx.text.__gnu_unwind_get_pr_addr
                0x080030b4        0x0 /usr/bin/../lib/gcc/arm-none-eabi/12.3.1/thumb/v7e-m+fp/hard/libgcc.a(unwind-arm.o)
                                  0x8 (size before relaxing)
 .ARM.exidx.text.get_eit_entry
                0x080030b4        0x8 /usr/bin/../lib/gcc/arm-none-eabi/12.3.1/thumb/v7e-m+fp/hard/libgcc.a(unwind-arm.o)
 .ARM.exidx.text.restore_non_core_regs
                0x080030bc        0x8 /usr/bin/../lib/gcc/arm-none-eabi/12.3.1/thumb/v7e-m+fp/hard/libgcc.a(unwind-arm.o)
 .ARM.exidx.text.__gnu_unwind_24bit.constprop.0
                0x080030c4        0x8 /usr/bin/../lib/gcc/arm-none-eabi/12.3.1/thumb/v7e-m+fp/hard/libgcc.a(unwind-arm.o)
 .ARM.exidx.text._Unwind_decode_typeinfo_ptr.constprop.0
                0x080030cc        0x0 /usr/bin/../lib/gcc/arm-none-eabi/12.3.1/thumb/v7e-m+fp/hard/libgcc.a(unwind-arm.o)
                                  0x8 (size before relaxing)
 .ARM.exidx.text._Unwind_DebugHook
                0x080030cc        0x0 /usr/bin/../lib/gcc/arm-none-eabi/12.3.1/thumb/v7e-m+fp/hard/libgcc.a(unwind-arm.o)
                                  0x8 (size before relaxing)
 .ARM.exidx.text.unwind_phase2
                0x080030cc        0x8 /usr/bin/../lib/gcc/arm-none-eabi/12.3.1/thumb/v7e-m+fp/hard/libgcc.a(unwind-arm.o)
 .ARM.exidx.text.unwind_phase2_forced
                0x080030d4        0x8 /usr/bin/../lib/gcc/arm-none-eabi/12.3.1/thumb/v7e-m+fp/hard/libgcc.a(unwind-arm.o)
 .ARM.exidx.text._Unwind_GetCFA
                0x080030dc        0x8 /usr/bin/../lib/gcc/arm-none-eabi/12.3.1/thumb/v7e-m+fp/hard/libgcc.a(unwind-arm.o)
 .ARM.exidx.text.__gnu_Unwind_RaiseException
                0x080030e4        0x8 /usr/bin/../lib/gcc/arm-none-eabi/12.3.1/thumb/v7e-m+fp/hard/libgcc.a(unwind-arm.o)
 .ARM.exidx.text.__gnu_Unwind_ForcedUnwind
                0x080030ec        0x8 /usr/bin/../lib/gcc/arm-none-eabi/12.3.1/thumb/v7e-m+fp/hard/libgcc.a(unwind-arm.o)
 .ARM.exidx.text.__gnu_Unwind_Resume
                0x080030f4        0x8 /usr/bin/../lib/gcc/arm-none-eabi/12.3.1/thumb/v7e-m+fp/hard/libgcc.a(unwind-arm.o)
 .ARM.exidx.text.__gnu_Unwind_Resume_or_Rethrow
                0x080030fc        0x8 /usr/bin/../lib/gcc/arm-none-eabi/12.3.1/thumb/v7e-m+fp/hard/libgcc.a(unwind-arm.o)
 .ARM.exidx.text._Unwind_Complete
                0x08003104        0x0 /usr/bin/../lib/gcc/arm-none-eabi/12.3.1/thumb/v7e-m+fp/hard/libgcc.a(unwind-arm.o)
                                  0x8 (size before relaxing)
 .ARM.exidx.text._Unwind_DeleteException
                0x08003104        0x0 /usr/bin/../lib/gcc/arm-none-eabi/12.3.1/thumb/v7e-m+fp/hard/libgcc.a(unwind-arm.o)
                                  0x8 (size before relaxing)
 .ARM.exidx.text._Unwind_VRS_Get
                0x08003104        0x0 /usr/bin/../lib/gcc/arm-none-eabi/12.3.1/thumb/v7e-m+fp/hard/libgcc.a(unwind-arm.o)
                                  0x8 (size before relaxing)
 .ARM.exidx.text._Unwind_GetGR
                0x08003104        0x0 /usr/bin/../lib/gcc/arm-none-eabi/12.3.1/thumb/v7e-m+fp/hard/libgcc.a(unwind-arm.o)
                                  0x8 (size before relaxing)
 .ARM.exidx.text._Unwind_VRS_Set
                0x08003104        0x0 /usr/bin/../lib/gcc/arm-none-eabi/12.3.1/thumb/v7e-m+fp/hard/libgcc.a(unwind-arm.o)
                                  0x8 (size before relaxing)
 .ARM.exidx.text._Unwind_SetGR
                0x08003104        0x0 /usr/bin/../lib/gcc/arm-none-eabi/12.3.1/thumb/v7e-m+fp/hard/libgcc.a(unwind-arm.o)
                                  0x8 (size before relaxing)
 .ARM.exidx.text.__gnu_Unwind_Backtrace
                0x08003104        0x8 /usr/bin/../lib/gcc/arm-none-eabi/12.3.1/thumb/v7e-m+fp/hard/libgcc.a(unwind-arm.o)
 .ARM.exidx.text.__gnu_unwind_pr_common
                0x0800310c        0x8 /usr/bin/../lib/gcc/arm-none-eabi/12.3.1/thumb/v7e-m+fp/hard/libgcc.a(unwind-arm.o)
 .ARM.exidx.text.__aeabi_unwind_cpp_pr0
                0x08003114        0x8 /usr/bin/../lib/gcc/arm-none-eabi/12.3.1/thumb/v7e-m+fp/hard/libgcc.a(unwind-arm.o)
 .ARM.exidx.text.__aeabi_unwind_cpp_pr1
                0x0800311c        0x0 /usr/bin/../lib/gcc/arm-none-eabi/12.3.1/thumb/v7e-m+fp/hard/libgcc.a(unwind-arm.o)
                                  0x8 (size before relaxing)
 .ARM.exidx.text.__aeabi_unwind_cpp_pr2
                0x0800311c        0x0 /usr/bin/../lib/gcc/arm-none-eabi/12.3.1/thumb/v7e-m+fp/hard/libgcc.a(unwind-arm.o)
                                  0x8 (size before relaxing)
 .ARM.exidx.text._Unwind_VRS_Pop
                0x0800311c        0x8 /usr/bin/../lib/gcc/arm-none-eabi/12.3.1/thumb/v7e-m+fp/hard/libgcc.a(unwind-arm.o)
 .ARM.exidx.text.next_unwind_byte
                0x08003124        0x8 /usr/bin/../lib/gcc/arm-none-eabi/12.3.1/thumb/v7e-m+fp/hard/libgcc.a(pr-support.o)
 .ARM.exidx.text._Unwind_GetGR.constprop.0
                0x0800312c        0x8 /usr/bin/../lib/gcc/arm-none-eabi/12.3.1/thumb/v7e-m+fp/hard/libgcc.a(pr-support.o)
 .ARM.exidx.text.unwind_UCB_from_context
                0x08003134        0x8 /usr/bin/../lib/gcc/arm-none-eabi/12.3.1/thumb/v7e-m+fp/hard/libgcc.a(pr-support.o)
 .ARM.exidx.text.__gnu_unwind_execute
                0x0800313c        0x8 /usr/bin/../lib/gcc/arm-none-eabi/12.3.1/thumb/v7e-m+fp/hard/libgcc.a(pr-support.o)
 .ARM.exidx.text.__gnu_unwind_frame
                0x08003144        0x8 /usr/bin/../lib/gcc/arm-none-eabi/12.3.1/thumb/v7e-m+fp/hard/libgcc.a(pr-support.o)
 .ARM.exidx.text._Unwind_GetRegionStart
                0x0800314c        0x8 /usr/bin/../lib/gcc/arm-none-eabi/12.3.1/thumb/v7e-m+fp/hard/libgcc.a(pr-support.o)
 .ARM.exidx.text._Unwind_GetLanguageSpecificData
                0x08003154        0x8 /usr/bin/../lib/gcc/arm-none-eabi/12.3.1/thumb/v7e-m+fp/hard/libgcc.a(pr-support.o)
 .ARM.exidx.text.unlikely._Unwind_GetDataRelBase
                0x0800315c        0x8 /usr/bin/../lib/gcc/arm-none-eabi/12.3.1/thumb/v7e-m+fp/hard/libgcc.a(pr-support.o)
 .ARM.exidx.text.unlikely._Unwind_GetTextRelBase
                0x08003164        0x0 /usr/bin/../lib/gcc/arm-none-eabi/12.3.1/thumb/v7e-m+fp/hard/libgcc.a(pr-support.o)
                                  0x8 (size before relaxing)
                0x08003164                        __exidx_end = .

.rel.dyn        0x08003164        0x0
 .rel.iplt      0x08003164        0x0 /usr/bin/../lib/gcc/arm-none-eabi/12.3.1/thumb/v7e-m+fp/hard/crtbegin.o

.preinit_array  0x08003164        0x0
                0x08003164                        PROVIDE (__preinit_array_start = .)
 *(.preinit_array*)
                0x08003164                        PROVIDE (__preinit_array_end = .)

.init_array     0x08003164        0xc
                0x08003164                        PROVIDE (__init_array_start = .)
 *(SORT_BY_NAME(.init_array.*))
 *(.init_array*)
 .init_array    0x08003164        0x4 /usr/bin/../lib/gcc/arm-none-eabi/12.3.1/thumb/v7e-m+fp/hard/crtbegin.o
 .init_array    0x08003168        0x4 ../../Build/m7/m7/main_m7.o
 .init_array    0x0800316c        0x4 /usr/bin/../lib/gcc/arm-none-eabi/12.3.1/../../../../arm-none-eabi/lib/thumb/v7e-m+fp/hard/libstdc++_nano.a(eh_globals.o)
                0x08003170                        PROVIDE (__init_array_end = .)

.fini_array     0x08003170        0x8
                [!provide]                        PROVIDE (__fini_array_start = .)
 *(SORT_BY_NAME(.fini_array.*))
 *(.fini_array*)
 .fini_array    0x08003170        0x4 /usr/bin/../lib/gcc/arm-none-eabi/12.3.1/thumb/v7e-m+fp/hard/crtbegin.o
 .fini_array    0x08003174        0x4 ../../Build/m7/m7/main_m7.o
                [!provide]                        PROVIDE (__fini_array_end = .)
                0x08003178                        _sidata = LOADADDR (.data)

.data           0x20000000       0x74 load address 0x08003178
                0x20000000                        . = ALIGN (0x4)
                0x20000000                        _sdata = .
 *(.data)
 .data          0x20000000        0x0 /usr/bin/../lib/gcc/arm-none-eabi/12.3.1/thumb/v7e-m+fp/hard/crti.o
 .data          0x20000000        0x0 /usr/bin/../lib/gcc/arm-none-eabi/12.3.1/thumb/v7e-m+fp/hard/crtbegin.o
 .data          0x20000000        0x0 /usr/bin/../lib/gcc/arm-none-eabi/12.3.1/../../../../arm-none-eabi/lib/thumb/v7e-m+fp/hard/crt0.o
 .data          0x20000000        0x0 ../../Build/m7/m7/main_m7.o
 .data          0x20000000        0x0 ../../Build/m7/Common/sysmem.o
 .data          0x20000000        0x0 ../../Build/m7/Common/syscalls.o
 .data          0x20000000        0x0 ../../Build/m7/Startup/startup_stm32h755xx.o
 .data          0x20000000        0x0 /usr/bin/../lib/gcc/arm-none-eabi/12.3.1/../../../../arm-none-eabi/lib/thumb/v7e-m+fp/hard/libstdc++_nano.a(eh_personality.o)
 .data          0x20000000        0x0 /usr/bin/../lib/gcc/arm-none-eabi/12.3.1/../../../../arm-none-eabi/lib/thumb/v7e-m+fp/hard/libstdc++_nano.a(eh_terminate.o)
 .data          0x20000000        0x0 /usr/bin/../lib/gcc/arm-none-eabi/12.3.1/../../../../arm-none-eabi/lib/thumb/v7e-m+fp/hard/libstdc++_nano.a(eh_unex_handler.o)
 .data          0x20000000        0x0 /usr/bin/../lib/gcc/arm-none-eabi/12.3.1/../../../../arm-none-eabi/lib/thumb/v7e-m+fp/hard/libstdc++_nano.a(eh_arm.o)
 .data          0x20000000        0x0 /usr/bin/../lib/gcc/arm-none-eabi/12.3.1/../../../../arm-none-eabi/lib/thumb/v7e-m+fp/hard/libstdc++_nano.a(eh_call.o)
 .data          0x20000000        0x0 /usr/bin/../lib/gcc/arm-none-eabi/12.3.1/../../../../arm-none-eabi/lib/thumb/v7e-m+fp/hard/libstdc++_nano.a(eh_catch.o)
 .data          0x20000000        0x0 /usr/bin/../lib/gcc/arm-none-eabi/12.3.1/../../../../arm-none-eabi/lib/thumb/v7e-m+fp/hard/libstdc++_nano.a(eh_exception.o)
 .data          0x20000000        0x0 /usr/bin/../lib/gcc/arm-none-eabi/12.3.1/../../../../arm-none-eabi/lib/thumb/v7e-m+fp/hard/libstdc++_nano.a(eh_globals.o)
 .data          0x20000000        0x0 /usr/bin/../lib/gcc/arm-none-eabi/12.3.1/../../../../arm-none-eabi/lib/thumb/v7e-m+fp/hard/libstdc++_nano.a(eh_term_handler.o)
 .data          0x20000000        0x0 /usr/bin/../lib/gcc/arm-none-eabi/12.3.1/../../../../arm-none-eabi/lib/thumb/v7e-m+fp/hard/libstdc++_nano.a(si_class_type_info.o)
 .data          0x20000000        0x0 /usr/bin/../lib/gcc/arm-none-eabi/12.3.1/../../../../arm-none-eabi/lib/thumb/v7e-m+fp/hard/libstdc++_nano.a(tinfo.o)
 .data          0x20000000        0x0 /usr/bin/../lib/gcc/arm-none-eabi/12.3.1/../../../../arm-none-eabi/lib/thumb/v7e-m+fp/hard/libstdc++_nano.a(atexit_arm.o)
 .data          0x20000000        0x0 /usr/bin/../lib/gcc/arm-none-eabi/12.3.1/../../../../arm-none-eabi/lib/thumb/v7e-m+fp/hard/libstdc++_nano.a(class_type_info.o)
 .data          0x20000000        0x0 /usr/bin/../lib/gcc/arm-none-eabi/12.3.1/../../../../arm-none-eabi/lib/thumb/v7e-m+fp/hard/libstdc++_nano.a(del_ops.o)
 .data          0x20000000        0x0 /usr/bin/../lib/gcc/arm-none-eabi/12.3.1/../../../../arm-none-eabi/lib/thumb/v7e-m+fp/hard/libstdc++_nano.a(del_op.o)
 .data          0x20000000        0x0 /usr/bin/../lib/gcc/arm-none-eabi/12.3.1/../../../../arm-none-eabi/lib/thumb/v7e-m+fp/hard/libc_nano.a(libc_a-exit.o)
 .data          0x20000000        0x0 /usr/bin/../lib/gcc/arm-none-eabi/12.3.1/../../../../arm-none-eabi/lib/thumb/v7e-m+fp/hard/libc_nano.a(libc_a-init.o)
 .data          0x20000000        0x0 /usr/bin/../lib/gcc/arm-none-eabi/12.3.1/../../../../arm-none-eabi/lib/thumb/v7e-m+fp/hard/libc_nano.a(libc_a-strcmp.o)
 .data          0x20000000        0x0 /usr/bin/../lib/gcc/arm-none-eabi/12.3.1/../../../../arm-none-eabi/lib/thumb/v7e-m+fp/hard/libc_nano.a(libc_a-malloc.o)
 .data          0x20000000        0x0 /usr/bin/../lib/gcc/arm-none-eabi/12.3.1/../../../../arm-none-eabi/lib/thumb/v7e-m+fp/hard/libc_nano.a(libc_a-mallocr.o)
 .data          0x20000000        0x0 /usr/bin/../lib/gcc/arm-none-eabi/12.3.1/../../../../arm-none-eabi/lib/thumb/v7e-m+fp/hard/libc_nano.a(libc_a-abort.o)
 .data          0x20000000        0x0 /usr/bin/../lib/gcc/arm-none-eabi/12.3.1/../../../../arm-none-eabi/lib/thumb/v7e-m+fp/hard/libc_nano.a(libc_a-cxa_atexit.o)
 .data          0x20000000        0x0 /usr/bin/../lib/gcc/arm-none-eabi/12.3.1/../../../../arm-none-eabi/lib/thumb/v7e-m+fp/hard/libc_nano.a(libc_a-findfp.o)
 .data          0x20000000        0x0 /usr/bin/../lib/gcc/arm-none-eabi/12.3.1/../../../../arm-none-eabi/lib/thumb/v7e-m+fp/hard/libc_nano.a(libc_a-stdio.o)
 .data          0x20000000        0x0 /usr/bin/../lib/gcc/arm-none-eabi/12.3.1/../../../../arm-none-eabi/lib/thumb/v7e-m+fp/hard/libc_nano.a(libc_a-mlock.o)
 .data          0x20000000        0x0 /usr/bin/../lib/gcc/arm-none-eabi/12.3.1/../../../../arm-none-eabi/lib/thumb/v7e-m+fp/hard/libc_nano.a(libc_a-on_exit_args.o)
 .data          0x20000000        0x0 /usr/bin/../lib/gcc/arm-none-eabi/12.3.1/../../../../arm-none-eabi/lib/thumb/v7e-m+fp/hard/libc_nano.a(libc_a-sbrkr.o)
 .data          0x20000000        0x0 /usr/bin/../lib/gcc/arm-none-eabi/12.3.1/../../../../arm-none-eabi/lib/thumb/v7e-m+fp/hard/libc_nano.a(libc_a-writer.o)
 .data          0x20000000        0x0 /usr/bin/../lib/gcc/arm-none-eabi/12.3.1/../../../../arm-none-eabi/lib/thumb/v7e-m+fp/hard/libc_nano.a(libc_a-errno.o)
 .data          0x20000000        0x0 /usr/bin/../lib/gcc/arm-none-eabi/12.3.1/../../../../arm-none-eabi/lib/thumb/v7e-m+fp/hard/libc_nano.a(libc_a-fwalk.o)
 .data          0x20000000        0x0 /usr/bin/../lib/gcc/arm-none-eabi/12.3.1/../../../../arm-none-eabi/lib/thumb/v7e-m+fp/hard/libc_nano.a(libc_a-memset.o)
 .data          0x20000000        0x0 /usr/bin/../lib/gcc/arm-none-eabi/12.3.1/../../../../arm-none-eabi/lib/thumb/v7e-m+fp/hard/libc_nano.a(libc_a-freer.o)
 .data          0x20000000        0x0 /usr/bin/../lib/gcc/arm-none-eabi/12.3.1/../../../../arm-none-eabi/lib/thumb/v7e-m+fp/hard/libc_nano.a(libc_a-lock.o)
 .data          0x20000000        0x0 /usr/bin/../lib/gcc/arm-none-eabi/12.3.1/../../../../arm-none-eabi/lib/thumb/v7e-m+fp/hard/libc_nano.a(libc_a-closer.o)
 .data          0x20000000        0x0 /usr/bin/../lib/gcc/arm-none-eabi/12.3.1/../../../../arm-none-eabi/lib/thumb/v7e-m+fp/hard/libc_nano.a(libc_a-reent.o)
 .data          0x20000000        0x0 /usr/bin/../lib/gcc/arm-none-eabi/12.3.1/../../../../arm-none-eabi/lib/thumb/v7e-m+fp/hard/libc_nano.a(libc_a-impure.o)
 .data          0x20000000        0x0 /usr/bin/../lib/gcc/arm-none-eabi/12.3.1/../../../../arm-none-eabi/lib/thumb/v7e-m+fp/hard/libc_nano.a(libc_a-fflush.o)
 .data          0x20000000        0x0 /usr/bin/../lib/gcc/arm-none-eabi/12.3.1/../../../../arm-none-eabi/lib/thumb/v7e-m+fp/hard/libc_nano.a(libc_a-signal.o)
 .data          0x20000000        0x0 /usr/bin/../lib/gcc/arm-none-eabi/12.3.1/../../../../arm-none-eabi/lib/thumb/v7e-m+fp/hard/libc_nano.a(libc_a-lseekr.o)
 .data          0x20000000        0x0 /usr/bin/../lib/gcc/arm-none-eabi/12.3.1/../../../../arm-none-eabi/lib/thumb/v7e-m+fp/hard/libc_nano.a(libc_a-readr.o)
 .data          0x20000000        0x0 /usr/bin/../lib/gcc/arm-none-eabi/12.3.1/../../../../arm-none-eabi/lib/thumb/v7e-m+fp/hard/libc_nano.a(libc_a-signalr.o)
 .data          0x20000000        0x0 /usr/bin/../lib/gcc/arm-none-eabi/12.3.1/thumb/v7e-m+fp/hard/libgcc.a(unwind-arm.o)
 .data          0x20000000        0x0 /usr/bin/../lib/gcc/arm-none-eabi/12.3.1/thumb/v7e-m+fp/hard/libgcc.a(libunwind.o)
 .data          0x20000000        0x0 /usr/bin/../lib/gcc/arm-none-eabi/12.3.1/thumb/v7e-m+fp/hard/libgcc.a(pr-support.o)
 .data          0x20000000        0x0 /usr/bin/../lib/gcc/arm-none-eabi/12.3.1/../../../../arm-none-eabi/lib/thumb/v7e-m+fp/hard/libc_nano.a(libc_a-memcpy-stub.o)
 .data          0x20000000        0x0 /usr/bin/../lib/gcc/arm-none-eabi/12.3.1/thumb/v7e-m+fp/hard/crtend.o
 .data          0x20000000        0x0 /usr/bin/../lib/gcc/arm-none-eabi/12.3.1/thumb/v7e-m+fp/hard/crtn.o
 *(.data*)
 .data.__dso_handle
                0x20000000        0x4 /usr/bin/../lib/gcc/arm-none-eabi/12.3.1/thumb/v7e-m+fp/hard/crtbegin.o
                0x20000000                __dso_handle
 .data.a        0x20000004        0x8 ../../Build/m7/m7/main_m7.o
                0x20000004                a
 .data.environ  0x2000000c        0x4 ../../Build/m7/Common/syscalls.o
                0x2000000c                environ
 .data._ZN10__cxxabiv120__unexpected_handlerE
                0x20000010        0x4 /usr/bin/../lib/gcc/arm-none-eabi/12.3.1/../../../../arm-none-eabi/lib/thumb/v7e-m+fp/hard/libstdc++_nano.a(eh_unex_handler.o)
                0x20000010                __cxxabiv1::__unexpected_handler
 .data._ZN10__cxxabiv119__terminate_handlerE
                0x20000014        0x4 /usr/bin/../lib/gcc/arm-none-eabi/12.3.1/../../../../arm-none-eabi/lib/thumb/v7e-m+fp/hard/libstdc++_nano.a(eh_term_handler.o)
                0x20000014                __cxxabiv1::__terminate_handler
 .data.__sglue  0x20000018        0xc /usr/bin/../lib/gcc/arm-none-eabi/12.3.1/../../../../arm-none-eabi/lib/thumb/v7e-m+fp/hard/libc_nano.a(libc_a-findfp.o)
                0x20000018                __sglue
 .data._impure_ptr
                0x20000024        0x4 /usr/bin/../lib/gcc/arm-none-eabi/12.3.1/../../../../arm-none-eabi/lib/thumb/v7e-m+fp/hard/libc_nano.a(libc_a-impure.o)
                0x20000024                _impure_ptr
 .data._impure_data
                0x20000028       0x4c /usr/bin/../lib/gcc/arm-none-eabi/12.3.1/../../../../arm-none-eabi/lib/thumb/v7e-m+fp/hard/libc_nano.a(libc_a-impure.o)
                0x20000028                _impure_data
                0x20000074                        . = ALIGN (0x4)
                0x20000074                        _edata = .

.tm_clone_table
                0x20000074        0x0 load address 0x080031ec
 .tm_clone_table
                0x20000074        0x0 /usr/bin/../lib/gcc/arm-none-eabi/12.3.1/thumb/v7e-m+fp/hard/crtbegin.o
 .tm_clone_table
                0x20000074        0x0 /usr/bin/../lib/gcc/arm-none-eabi/12.3.1/thumb/v7e-m+fp/hard/crtend.o

.igot.plt       0x20000074        0x0 load address 0x080031ec
 .igot.plt      0x20000074        0x0 /usr/bin/../lib/gcc/arm-none-eabi/12.3.1/thumb/v7e-m+fp/hard/crtbegin.o
                0x20000074                        . = ALIGN (0x4)

.bss            0x20000074      0x298 load address 0x080031ec
                0x20000074                        _sbss = .
                0x20000074                        __bss_start__ = _sbss
 *(.bss)
 .bss           0x20000074        0x0 /usr/bin/../lib/gcc/arm-none-eabi/12.3.1/thumb/v7e-m+fp/hard/crti.o
 .bss           0x20000074        0x0 /usr/bin/../lib/gcc/arm-none-eabi/12.3.1/thumb/v7e-m+fp/hard/crtbegin.o
 .bss           0x20000074        0x0 /usr/bin/../lib/gcc/arm-none-eabi/12.3.1/../../../../arm-none-eabi/lib/thumb/v7e-m+fp/hard/crt0.o
 .bss           0x20000074        0x0 ../../Build/m7/m7/main_m7.o
 .bss           0x20000074        0x0 ../../Build/m7/Common/sysmem.o
 .bss           0x20000074        0x0 ../../Build/m7/Common/syscalls.o
 .bss           0x20000074        0x0 ../../Build/m7/Startup/startup_stm32h755xx.o
 .bss           0x20000074        0x0 /usr/bin/../lib/gcc/arm-none-eabi/12.3.1/../../../../arm-none-eabi/lib/thumb/v7e-m+fp/hard/libstdc++_nano.a(eh_personality.o)
 .bss           0x20000074        0x0 /usr/bin/../lib/gcc/arm-none-eabi/12.3.1/../../../../arm-none-eabi/lib/thumb/v7e-m+fp/hard/libstdc++_nano.a(eh_terminate.o)
 .bss           0x20000074        0x0 /usr/bin/../lib/gcc/arm-none-eabi/12.3.1/../../../../arm-none-eabi/lib/thumb/v7e-m+fp/hard/libstdc++_nano.a(eh_unex_handler.o)
 .bss           0x20000074        0x0 /usr/bin/../lib/gcc/arm-none-eabi/12.3.1/../../../../arm-none-eabi/lib/thumb/v7e-m+fp/hard/libstdc++_nano.a(eh_arm.o)
 .bss           0x20000074        0x0 /usr/bin/../lib/gcc/arm-none-eabi/12.3.1/../../../../arm-none-eabi/lib/thumb/v7e-m+fp/hard/libstdc++_nano.a(eh_call.o)
 .bss           0x20000074        0x0 /usr/bin/../lib/gcc/arm-none-eabi/12.3.1/../../../../arm-none-eabi/lib/thumb/v7e-m+fp/hard/libstdc++_nano.a(eh_catch.o)
 .bss           0x20000074        0x0 /usr/bin/../lib/gcc/arm-none-eabi/12.3.1/../../../../arm-none-eabi/lib/thumb/v7e-m+fp/hard/libstdc++_nano.a(eh_exception.o)
 .bss           0x20000074        0x0 /usr/bin/../lib/gcc/arm-none-eabi/12.3.1/../../../../arm-none-eabi/lib/thumb/v7e-m+fp/hard/libstdc++_nano.a(eh_globals.o)
 .bss           0x20000074        0x0 /usr/bin/../lib/gcc/arm-none-eabi/12.3.1/../../../../arm-none-eabi/lib/thumb/v7e-m+fp/hard/libstdc++_nano.a(eh_term_handler.o)
 .bss           0x20000074        0x0 /usr/bin/../lib/gcc/arm-none-eabi/12.3.1/../../../../arm-none-eabi/lib/thumb/v7e-m+fp/hard/libstdc++_nano.a(si_class_type_info.o)
 .bss           0x20000074        0x0 /usr/bin/../lib/gcc/arm-none-eabi/12.3.1/../../../../arm-none-eabi/lib/thumb/v7e-m+fp/hard/libstdc++_nano.a(tinfo.o)
 .bss           0x20000074        0x0 /usr/bin/../lib/gcc/arm-none-eabi/12.3.1/../../../../arm-none-eabi/lib/thumb/v7e-m+fp/hard/libstdc++_nano.a(atexit_arm.o)
 .bss           0x20000074        0x0 /usr/bin/../lib/gcc/arm-none-eabi/12.3.1/../../../../arm-none-eabi/lib/thumb/v7e-m+fp/hard/libstdc++_nano.a(class_type_info.o)
 .bss           0x20000074        0x0 /usr/bin/../lib/gcc/arm-none-eabi/12.3.1/../../../../arm-none-eabi/lib/thumb/v7e-m+fp/hard/libstdc++_nano.a(del_ops.o)
 .bss           0x20000074        0x0 /usr/bin/../lib/gcc/arm-none-eabi/12.3.1/../../../../arm-none-eabi/lib/thumb/v7e-m+fp/hard/libstdc++_nano.a(del_op.o)
 .bss           0x20000074        0x0 /usr/bin/../lib/gcc/arm-none-eabi/12.3.1/../../../../arm-none-eabi/lib/thumb/v7e-m+fp/hard/libc_nano.a(libc_a-exit.o)
 .bss           0x20000074        0x0 /usr/bin/../lib/gcc/arm-none-eabi/12.3.1/../../../../arm-none-eabi/lib/thumb/v7e-m+fp/hard/libc_nano.a(libc_a-init.o)
 .bss           0x20000074        0x0 /usr/bin/../lib/gcc/arm-none-eabi/12.3.1/../../../../arm-none-eabi/lib/thumb/v7e-m+fp/hard/libc_nano.a(libc_a-strcmp.o)
 .bss           0x20000074        0x0 /usr/bin/../lib/gcc/arm-none-eabi/12.3.1/../../../../arm-none-eabi/lib/thumb/v7e-m+fp/hard/libc_nano.a(libc_a-malloc.o)
 .bss           0x20000074        0x0 /usr/bin/../lib/gcc/arm-none-eabi/12.3.1/../../../../arm-none-eabi/lib/thumb/v7e-m+fp/hard/libc_nano.a(libc_a-mallocr.o)
 .bss           0x20000074        0x0 /usr/bin/../lib/gcc/arm-none-eabi/12.3.1/../../../../arm-none-eabi/lib/thumb/v7e-m+fp/hard/libc_nano.a(libc_a-abort.o)
 .bss           0x20000074        0x0 /usr/bin/../lib/gcc/arm-none-eabi/12.3.1/../../../../arm-none-eabi/lib/thumb/v7e-m+fp/hard/libc_nano.a(libc_a-cxa_atexit.o)
 .bss           0x20000074        0x0 /usr/bin/../lib/gcc/arm-none-eabi/12.3.1/../../../../arm-none-eabi/lib/thumb/v7e-m+fp/hard/libc_nano.a(libc_a-findfp.o)
 .bss           0x20000074        0x0 /usr/bin/../lib/gcc/arm-none-eabi/12.3.1/../../../../arm-none-eabi/lib/thumb/v7e-m+fp/hard/libc_nano.a(libc_a-stdio.o)
 .bss           0x20000074        0x0 /usr/bin/../lib/gcc/arm-none-eabi/12.3.1/../../../../arm-none-eabi/lib/thumb/v7e-m+fp/hard/libc_nano.a(libc_a-mlock.o)
 .bss           0x20000074        0x0 /usr/bin/../lib/gcc/arm-none-eabi/12.3.1/../../../../arm-none-eabi/lib/thumb/v7e-m+fp/hard/libc_nano.a(libc_a-on_exit_args.o)
 .bss           0x20000074        0x0 /usr/bin/../lib/gcc/arm-none-eabi/12.3.1/../../../../arm-none-eabi/lib/thumb/v7e-m+fp/hard/libc_nano.a(libc_a-sbrkr.o)
 .bss           0x20000074        0x0 /usr/bin/../lib/gcc/arm-none-eabi/12.3.1/../../../../arm-none-eabi/lib/thumb/v7e-m+fp/hard/libc_nano.a(libc_a-writer.o)
 .bss           0x20000074        0x0 /usr/bin/../lib/gcc/arm-none-eabi/12.3.1/../../../../arm-none-eabi/lib/thumb/v7e-m+fp/hard/libc_nano.a(libc_a-errno.o)
 .bss           0x20000074        0x0 /usr/bin/../lib/gcc/arm-none-eabi/12.3.1/../../../../arm-none-eabi/lib/thumb/v7e-m+fp/hard/libc_nano.a(libc_a-fwalk.o)
 .bss           0x20000074        0x0 /usr/bin/../lib/gcc/arm-none-eabi/12.3.1/../../../../arm-none-eabi/lib/thumb/v7e-m+fp/hard/libc_nano.a(libc_a-memset.o)
 .bss           0x20000074        0x0 /usr/bin/../lib/gcc/arm-none-eabi/12.3.1/../../../../arm-none-eabi/lib/thumb/v7e-m+fp/hard/libc_nano.a(libc_a-freer.o)
 .bss           0x20000074        0x0 /usr/bin/../lib/gcc/arm-none-eabi/12.3.1/../../../../arm-none-eabi/lib/thumb/v7e-m+fp/hard/libc_nano.a(libc_a-lock.o)
 .bss           0x20000074        0x0 /usr/bin/../lib/gcc/arm-none-eabi/12.3.1/../../../../arm-none-eabi/lib/thumb/v7e-m+fp/hard/libc_nano.a(libc_a-closer.o)
 .bss           0x20000074        0x0 /usr/bin/../lib/gcc/arm-none-eabi/12.3.1/../../../../arm-none-eabi/lib/thumb/v7e-m+fp/hard/libc_nano.a(libc_a-reent.o)
 .bss           0x20000074        0x0 /usr/bin/../lib/gcc/arm-none-eabi/12.3.1/../../../../arm-none-eabi/lib/thumb/v7e-m+fp/hard/libc_nano.a(libc_a-impure.o)
 .bss           0x20000074        0x0 /usr/bin/../lib/gcc/arm-none-eabi/12.3.1/../../../../arm-none-eabi/lib/thumb/v7e-m+fp/hard/libc_nano.a(libc_a-fflush.o)
 .bss           0x20000074        0x0 /usr/bin/../lib/gcc/arm-none-eabi/12.3.1/../../../../arm-none-eabi/lib/thumb/v7e-m+fp/hard/libc_nano.a(libc_a-signal.o)
 .bss           0x20000074        0x0 /usr/bin/../lib/gcc/arm-none-eabi/12.3.1/../../../../arm-none-eabi/lib/thumb/v7e-m+fp/hard/libc_nano.a(libc_a-lseekr.o)
 .bss           0x20000074        0x0 /usr/bin/../lib/gcc/arm-none-eabi/12.3.1/../../../../arm-none-eabi/lib/thumb/v7e-m+fp/hard/libc_nano.a(libc_a-readr.o)
 .bss           0x20000074        0x0 /usr/bin/../lib/gcc/arm-none-eabi/12.3.1/../../../../arm-none-eabi/lib/thumb/v7e-m+fp/hard/libc_nano.a(libc_a-signalr.o)
 .bss           0x20000074        0x0 /usr/bin/../lib/gcc/arm-none-eabi/12.3.1/thumb/v7e-m+fp/hard/libgcc.a(unwind-arm.o)
 .bss           0x20000074        0x0 /usr/bin/../lib/gcc/arm-none-eabi/12.3.1/thumb/v7e-m+fp/hard/libgcc.a(libunwind.o)
 .bss           0x20000074        0x0 /usr/bin/../lib/gcc/arm-none-eabi/12.3.1/thumb/v7e-m+fp/hard/libgcc.a(pr-support.o)
 .bss           0x20000074        0x0 /usr/bin/../lib/gcc/arm-none-eabi/12.3.1/../../../../arm-none-eabi/lib/thumb/v7e-m+fp/hard/libc_nano.a(libc_a-memcpy-stub.o)
 .bss           0x20000074        0x0 /usr/bin/../lib/gcc/arm-none-eabi/12.3.1/thumb/v7e-m+fp/hard/crtend.o
 .bss           0x20000074        0x0 /usr/bin/../lib/gcc/arm-none-eabi/12.3.1/thumb/v7e-m+fp/hard/crtn.o
 *(.bss*)
 .bss.completed.1
                0x20000074        0x1 /usr/bin/../lib/gcc/arm-none-eabi/12.3.1/thumb/v7e-m+fp/hard/crtbegin.o
 *fill*         0x20000075        0x3 
 .bss.object.0  0x20000078       0x18 /usr/bin/../lib/gcc/arm-none-eabi/12.3.1/thumb/v7e-m+fp/hard/crtbegin.o
 .bss.A         0x20000090       0x10 ../../Build/m7/m7/main_m7.o
                0x20000090                A
 .bss.__sbrk_heap_end
                0x200000a0        0x4 ../../Build/m7/Common/sysmem.o
 .bss.__env     0x200000a4        0x4 ../../Build/m7/Common/syscalls.o
                0x200000a4                __env
 .bss._ZN12_GLOBAL__N_110eh_globalsE
                0x200000a8        0xc /usr/bin/../lib/gcc/arm-none-eabi/12.3.1/../../../../arm-none-eabi/lib/thumb/v7e-m+fp/hard/libstdc++_nano.a(eh_globals.o)
 .bss.__malloc_sbrk_start
                0x200000b4        0x4 /usr/bin/../lib/gcc/arm-none-eabi/12.3.1/../../../../arm-none-eabi/lib/thumb/v7e-m+fp/hard/libc_nano.a(libc_a-mallocr.o)
                0x200000b4                __malloc_sbrk_start
 .bss.__malloc_free_list
                0x200000b8        0x4 /usr/bin/../lib/gcc/arm-none-eabi/12.3.1/../../../../arm-none-eabi/lib/thumb/v7e-m+fp/hard/libc_nano.a(libc_a-mallocr.o)
                0x200000b8                __malloc_free_list
 .bss.__sf      0x200000bc      0x138 /usr/bin/../lib/gcc/arm-none-eabi/12.3.1/../../../../arm-none-eabi/lib/thumb/v7e-m+fp/hard/libc_nano.a(libc_a-findfp.o)
                0x200000bc                __sf
 .bss.__stdio_exit_handler
                0x200001f4        0x4 /usr/bin/../lib/gcc/arm-none-eabi/12.3.1/../../../../arm-none-eabi/lib/thumb/v7e-m+fp/hard/libc_nano.a(libc_a-findfp.o)
                0x200001f4                __stdio_exit_handler
 .bss._on_exit_args_instance
                0x200001f8      0x108 /usr/bin/../lib/gcc/arm-none-eabi/12.3.1/../../../../arm-none-eabi/lib/thumb/v7e-m+fp/hard/libc_nano.a(libc_a-on_exit_args.o)
 .bss.__lock___arc4random_mutex
                0x20000300        0x1 /usr/bin/../lib/gcc/arm-none-eabi/12.3.1/../../../../arm-none-eabi/lib/thumb/v7e-m+fp/hard/libc_nano.a(libc_a-lock.o)
                0x20000300                __lock___arc4random_mutex
 .bss.__lock___dd_hash_mutex
                0x20000301        0x1 /usr/bin/../lib/gcc/arm-none-eabi/12.3.1/../../../../arm-none-eabi/lib/thumb/v7e-m+fp/hard/libc_nano.a(libc_a-lock.o)
                0x20000301                __lock___dd_hash_mutex
 .bss.__lock___tz_mutex
                0x20000302        0x1 /usr/bin/../lib/gcc/arm-none-eabi/12.3.1/../../../../arm-none-eabi/lib/thumb/v7e-m+fp/hard/libc_nano.a(libc_a-lock.o)
                0x20000302                __lock___tz_mutex
 .bss.__lock___env_recursive_mutex
                0x20000303        0x1 /usr/bin/../lib/gcc/arm-none-eabi/12.3.1/../../../../arm-none-eabi/lib/thumb/v7e-m+fp/hard/libc_nano.a(libc_a-lock.o)
                0x20000303                __lock___env_recursive_mutex
 .bss.__lock___malloc_recursive_mutex
                0x20000304        0x1 /usr/bin/../lib/gcc/arm-none-eabi/12.3.1/../../../../arm-none-eabi/lib/thumb/v7e-m+fp/hard/libc_nano.a(libc_a-lock.o)
                0x20000304                __lock___malloc_recursive_mutex
 .bss.__lock___at_quick_exit_mutex
                0x20000305        0x1 /usr/bin/../lib/gcc/arm-none-eabi/12.3.1/../../../../arm-none-eabi/lib/thumb/v7e-m+fp/hard/libc_nano.a(libc_a-lock.o)
                0x20000305                __lock___at_quick_exit_mutex
 .bss.__lock___atexit_recursive_mutex
                0x20000306        0x1 /usr/bin/../lib/gcc/arm-none-eabi/12.3.1/../../../../arm-none-eabi/lib/thumb/v7e-m+fp/hard/libc_nano.a(libc_a-lock.o)
                0x20000306                __lock___atexit_recursive_mutex
 .bss.__lock___sfp_recursive_mutex
                0x20000307        0x1 /usr/bin/../lib/gcc/arm-none-eabi/12.3.1/../../../../arm-none-eabi/lib/thumb/v7e-m+fp/hard/libc_nano.a(libc_a-lock.o)
                0x20000307                __lock___sfp_recursive_mutex
 .bss.errno     0x20000308        0x4 /usr/bin/../lib/gcc/arm-none-eabi/12.3.1/../../../../arm-none-eabi/lib/thumb/v7e-m+fp/hard/libc_nano.a(libc_a-reent.o)
                0x20000308                errno
 *(COMMON)
                0x2000030c                        . = ALIGN (0x4)
                0x2000030c                        _ebss = .
                0x2000030c                        __bss_end__ = _ebss

._user_heap_stack
                0x2000030c      0x604 load address 0x080031ec
                0x20000310                        . = ALIGN (0x8)
 *fill*         0x2000030c        0x4 
                [!provide]                        PROVIDE (end = .)
                0x20000310                        PROVIDE (_end = .)
                0x20000510                        . = (. + _Min_Heap_Size)
 *fill*         0x20000310      0x200 
                0x20000910                        . = (. + _Min_Stack_Size)
 *fill*         0x20000510      0x400 
                0x20000910                        . = ALIGN (0x8)

/DISCARD/
 libc.a(*)
 libm.a(*)
 libgcc.a(*)

.ARM.attributes
                0x00000000       0x30
 *(.ARM.attributes)
 .ARM.attributes
                0x00000000       0x22 /usr/bin/../lib/gcc/arm-none-eabi/12.3.1/thumb/v7e-m+fp/hard/crti.o
 .ARM.attributes
                0x00000022       0x34 /usr/bin/../lib/gcc/arm-none-eabi/12.3.1/thumb/v7e-m+fp/hard/crtbegin.o
 .ARM.attributes
                0x00000056       0x20 /usr/bin/../lib/gcc/arm-none-eabi/12.3.1/../../../../arm-none-eabi/lib/thumb/v7e-m+fp/hard/crt0.o
 .ARM.attributes
                0x00000076       0x34 ../../Build/m7/m7/main_m7.o
 .ARM.attributes
                0x000000aa       0x34 ../../Build/m7/Common/sysmem.o
 .ARM.attributes
                0x000000de       0x34 ../../Build/m7/Common/syscalls.o
 .ARM.attributes
                0x00000112       0x21 ../../Build/m7/Startup/startup_stm32h755xx.o
 .ARM.attributes
                0x00000133       0x34 /usr/bin/../lib/gcc/arm-none-eabi/12.3.1/../../../../arm-none-eabi/lib/thumb/v7e-m+fp/hard/libstdc++_nano.a(eh_personality.o)
 .ARM.attributes
                0x00000167       0x34 /usr/bin/../lib/gcc/arm-none-eabi/12.3.1/../../../../arm-none-eabi/lib/thumb/v7e-m+fp/hard/libstdc++_nano.a(eh_terminate.o)
 .ARM.attributes
                0x0000019b       0x34 /usr/bin/../lib/gcc/arm-none-eabi/12.3.1/../../../../arm-none-eabi/lib/thumb/v7e-m+fp/hard/libstdc++_nano.a(eh_unex_handler.o)
 .ARM.attributes
                0x000001cf       0x34 /usr/bin/../lib/gcc/arm-none-eabi/12.3.1/../../../../arm-none-eabi/lib/thumb/v7e-m+fp/hard/libstdc++_nano.a(eh_arm.o)
 .ARM.attributes
                0x00000203       0x34 /usr/bin/../lib/gcc/arm-none-eabi/12.3.1/../../../../arm-none-eabi/lib/thumb/v7e-m+fp/hard/libstdc++_nano.a(eh_call.o)
 .ARM.attributes
                0x00000237       0x34 /usr/bin/../lib/gcc/arm-none-eabi/12.3.1/../../../../arm-none-eabi/lib/thumb/v7e-m+fp/hard/libstdc++_nano.a(eh_catch.o)
 .ARM.attributes
                0x0000026b       0x34 /usr/bin/../lib/gcc/arm-none-eabi/12.3.1/../../../../arm-none-eabi/lib/thumb/v7e-m+fp/hard/libstdc++_nano.a(eh_exception.o)
 .ARM.attributes
                0x0000029f       0x34 /usr/bin/../lib/gcc/arm-none-eabi/12.3.1/../../../../arm-none-eabi/lib/thumb/v7e-m+fp/hard/libstdc++_nano.a(eh_globals.o)
 .ARM.attributes
                0x000002d3       0x34 /usr/bin/../lib/gcc/arm-none-eabi/12.3.1/../../../../arm-none-eabi/lib/thumb/v7e-m+fp/hard/libstdc++_nano.a(eh_term_handler.o)
 .ARM.attributes
                0x00000307       0x34 /usr/bin/../lib/gcc/arm-none-eabi/12.3.1/../../../../arm-none-eabi/lib/thumb/v7e-m+fp/hard/libstdc++_nano.a(si_class_type_info.o)
 .ARM.attributes
                0x0000033b       0x34 /usr/bin/../lib/gcc/arm-none-eabi/12.3.1/../../../../arm-none-eabi/lib/thumb/v7e-m+fp/hard/libstdc++_nano.a(tinfo.o)
 .ARM.attributes
                0x0000036f       0x34 /usr/bin/../lib/gcc/arm-none-eabi/12.3.1/../../../../arm-none-eabi/lib/thumb/v7e-m+fp/hard/libstdc++_nano.a(atexit_arm.o)
 .ARM.attributes
                0x000003a3       0x34 /usr/bin/../lib/gcc/arm-none-eabi/12.3.1/../../../../arm-none-eabi/lib/thumb/v7e-m+fp/hard/libstdc++_nano.a(class_type_info.o)
 .ARM.attributes
                0x000003d7       0x34 /usr/bin/../lib/gcc/arm-none-eabi/12.3.1/../../../../arm-none-eabi/lib/thumb/v7e-m+fp/hard/libstdc++_nano.a(del_ops.o)
 .ARM.attributes
                0x0000040b       0x34 /usr/bin/../lib/gcc/arm-none-eabi/12.3.1/../../../../arm-none-eabi/lib/thumb/v7e-m+fp/hard/libstdc++_nano.a(del_op.o)
 .ARM.attributes
                0x0000043f       0x34 /usr/bin/../lib/gcc/arm-none-eabi/12.3.1/../../../../arm-none-eabi/lib/thumb/v7e-m+fp/hard/libc_nano.a(libc_a-exit.o)
 .ARM.attributes
                0x00000473       0x34 /usr/bin/../lib/gcc/arm-none-eabi/12.3.1/../../../../arm-none-eabi/lib/thumb/v7e-m+fp/hard/libc_nano.a(libc_a-init.o)
 .ARM.attributes
                0x000004a7       0x20 /usr/bin/../lib/gcc/arm-none-eabi/12.3.1/../../../../arm-none-eabi/lib/thumb/v7e-m+fp/hard/libc_nano.a(libc_a-strcmp.o)
 .ARM.attributes
                0x000004c7       0x34 /usr/bin/../lib/gcc/arm-none-eabi/12.3.1/../../../../arm-none-eabi/lib/thumb/v7e-m+fp/hard/libc_nano.a(libc_a-malloc.o)
 .ARM.attributes
                0x000004fb       0x34 /usr/bin/../lib/gcc/arm-none-eabi/12.3.1/../../../../arm-none-eabi/lib/thumb/v7e-m+fp/hard/libc_nano.a(libc_a-mallocr.o)
 .ARM.attributes
                0x0000052f       0x34 /usr/bin/../lib/gcc/arm-none-eabi/12.3.1/../../../../arm-none-eabi/lib/thumb/v7e-m+fp/hard/libc_nano.a(libc_a-abort.o)
 .ARM.attributes
                0x00000563       0x34 /usr/bin/../lib/gcc/arm-none-eabi/12.3.1/../../../../arm-none-eabi/lib/thumb/v7e-m+fp/hard/libc_nano.a(libc_a-cxa_atexit.o)
 .ARM.attributes
                0x00000597       0x34 /usr/bin/../lib/gcc/arm-none-eabi/12.3.1/../../../../arm-none-eabi/lib/thumb/v7e-m+fp/hard/libc_nano.a(libc_a-findfp.o)
 .ARM.attributes
                0x000005cb       0x34 /usr/bin/../lib/gcc/arm-none-eabi/12.3.1/../../../../arm-none-eabi/lib/thumb/v7e-m+fp/hard/libc_nano.a(libc_a-stdio.o)
 .ARM.attributes
                0x000005ff       0x34 /usr/bin/../lib/gcc/arm-none-eabi/12.3.1/../../../../arm-none-eabi/lib/thumb/v7e-m+fp/hard/libc_nano.a(libc_a-mlock.o)
 .ARM.attributes
                0x00000633       0x34 /usr/bin/../lib/gcc/arm-none-eabi/12.3.1/../../../../arm-none-eabi/lib/thumb/v7e-m+fp/hard/libc_nano.a(libc_a-on_exit_args.o)
 .ARM.attributes
                0x00000667       0x34 /usr/bin/../lib/gcc/arm-none-eabi/12.3.1/../../../../arm-none-eabi/lib/thumb/v7e-m+fp/hard/libc_nano.a(libc_a-sbrkr.o)
 .ARM.attributes
                0x0000069b       0x34 /usr/bin/../lib/gcc/arm-none-eabi/12.3.1/../../../../arm-none-eabi/lib/thumb/v7e-m+fp/hard/libc_nano.a(libc_a-writer.o)
 .ARM.attributes
                0x000006cf       0x34 /usr/bin/../lib/gcc/arm-none-eabi/12.3.1/../../../../arm-none-eabi/lib/thumb/v7e-m+fp/hard/libc_nano.a(libc_a-errno.o)
 .ARM.attributes
                0x00000703       0x34 /usr/bin/../lib/gcc/arm-none-eabi/12.3.1/../../../../arm-none-eabi/lib/thumb/v7e-m+fp/hard/libc_nano.a(libc_a-fwalk.o)
 .ARM.attributes
                0x00000737       0x34 /usr/bin/../lib/gcc/arm-none-eabi/12.3.1/../../../../arm-none-eabi/lib/thumb/v7e-m+fp/hard/libc_nano.a(libc_a-memset.o)
 .ARM.attributes
                0x0000076b       0x34 /usr/bin/../lib/gcc/arm-none-eabi/12.3.1/../../../../arm-none-eabi/lib/thumb/v7e-m+fp/hard/libc_nano.a(libc_a-freer.o)
 .ARM.attributes
                0x0000079f       0x34 /usr/bin/../lib/gcc/arm-none-eabi/12.3.1/../../../../arm-none-eabi/lib/thumb/v7e-m+fp/hard/libc_nano.a(libc_a-lock.o)
 .ARM.attributes
                0x000007d3       0x34 /usr/bin/../lib/gcc/arm-none-eabi/12.3.1/../../../../arm-none-eabi/lib/thumb/v7e-m+fp/hard/libc_nano.a(libc_a-closer.o)
 .ARM.attributes
                0x00000807       0x34 /usr/bin/../lib/gcc/arm-none-eabi/12.3.1/../../../../arm-none-eabi/lib/thumb/v7e-m+fp/hard/libc_nano.a(libc_a-reent.o)
 .ARM.attributes
                0x0000083b       0x34 /usr/bin/../lib/gcc/arm-none-eabi/12.3.1/../../../../arm-none-eabi/lib/thumb/v7e-m+fp/hard/libc_nano.a(libc_a-impure.o)
 .ARM.attributes
                0x0000086f       0x34 /usr/bin/../lib/gcc/arm-none-eabi/12.3.1/../../../../arm-none-eabi/lib/thumb/v7e-m+fp/hard/libc_nano.a(libc_a-fflush.o)
 .ARM.attributes
                0x000008a3       0x34 /usr/bin/../lib/gcc/arm-none-eabi/12.3.1/../../../../arm-none-eabi/lib/thumb/v7e-m+fp/hard/libc_nano.a(libc_a-signal.o)
 .ARM.attributes
                0x000008d7       0x34 /usr/bin/../lib/gcc/arm-none-eabi/12.3.1/../../../../arm-none-eabi/lib/thumb/v7e-m+fp/hard/libc_nano.a(libc_a-lseekr.o)
 .ARM.attributes
                0x0000090b       0x34 /usr/bin/../lib/gcc/arm-none-eabi/12.3.1/../../../../arm-none-eabi/lib/thumb/v7e-m+fp/hard/libc_nano.a(libc_a-readr.o)
 .ARM.attributes
                0x0000093f       0x34 /usr/bin/../lib/gcc/arm-none-eabi/12.3.1/../../../../arm-none-eabi/lib/thumb/v7e-m+fp/hard/libc_nano.a(libc_a-signalr.o)
 .ARM.attributes
                0x00000973       0x34 /usr/bin/../lib/gcc/arm-none-eabi/12.3.1/thumb/v7e-m+fp/hard/libgcc.a(unwind-arm.o)
 .ARM.attributes
                0x000009a7       0x22 /usr/bin/../lib/gcc/arm-none-eabi/12.3.1/thumb/v7e-m+fp/hard/libgcc.a(libunwind.o)
 .ARM.attributes
                0x000009c9       0x34 /usr/bin/../lib/gcc/arm-none-eabi/12.3.1/thumb/v7e-m+fp/hard/libgcc.a(pr-support.o)
 .ARM.attributes
                0x000009fd       0x34 /usr/bin/../lib/gcc/arm-none-eabi/12.3.1/../../../../arm-none-eabi/lib/thumb/v7e-m+fp/hard/libc_nano.a(libc_a-memcpy-stub.o)
 .ARM.attributes
                0x00000a31       0x34 /usr/bin/../lib/gcc/arm-none-eabi/12.3.1/thumb/v7e-m+fp/hard/crtend.o
 .ARM.attributes
                0x00000a65       0x22 /usr/bin/../lib/gcc/arm-none-eabi/12.3.1/thumb/v7e-m+fp/hard/crtn.o
OUTPUT(../../Build/m7/stm32h755xx_libs_m7.elf elf32-littlearm)
LOAD linker stubs
LOAD /usr/bin/../lib/gcc/arm-none-eabi/12.3.1/../../../../arm-none-eabi/lib/thumb/v7e-m+fp/hard/libc.a
LOAD /usr/bin/../lib/gcc/arm-none-eabi/12.3.1/../../../../arm-none-eabi/lib/thumb/v7e-m+fp/hard/libm.a
LOAD /usr/bin/../lib/gcc/arm-none-eabi/12.3.1/thumb/v7e-m+fp/hard/libgcc.a

.debug_line_str
                0x00000000      0x278
 .debug_line_str
                0x00000000       0xcf /usr/bin/../lib/gcc/arm-none-eabi/12.3.1/../../../../arm-none-eabi/lib/thumb/v7e-m+fp/hard/crt0.o
 .debug_line_str
                0x000000cf       0xe3 /usr/bin/../lib/gcc/arm-none-eabi/12.3.1/../../../../arm-none-eabi/lib/thumb/v7e-m+fp/hard/libc_nano.a(libc_a-strcmp.o)
 .debug_line_str
                0x000001b2       0xc6 /usr/bin/../lib/gcc/arm-none-eabi/12.3.1/thumb/v7e-m+fp/hard/libgcc.a(libunwind.o)

.debug_info     0x00000000     0x3980
 .debug_info    0x00000000     0x3175 ../../Build/m7/m7/main_m7.o
 .debug_info    0x00003175      0x168 ../../Build/m7/Common/sysmem.o
 .debug_info    0x000032dd      0x6a3 ../../Build/m7/Common/syscalls.o

.debug_abbrev   0x00000000      0xa82
 .debug_abbrev  0x00000000      0x810 ../../Build/m7/m7/main_m7.o
 .debug_abbrev  0x00000810       0xbc ../../Build/m7/Common/sysmem.o
 .debug_abbrev  0x000008cc      0x1b6 ../../Build/m7/Common/syscalls.o

.debug_aranges  0x00000000      0x168
 .debug_aranges
                0x00000000       0xa0 ../../Build/m7/m7/main_m7.o
 .debug_aranges
                0x000000a0       0x20 ../../Build/m7/Common/sysmem.o
 .debug_aranges
                0x000000c0       0xa8 ../../Build/m7/Common/syscalls.o

.debug_rnglists
                0x00000000       0xff
 .debug_rnglists
                0x00000000       0x73 ../../Build/m7/m7/main_m7.o
 .debug_rnglists
                0x00000073       0x13 ../../Build/m7/Common/sysmem.o
 .debug_rnglists
                0x00000086       0x79 ../../Build/m7/Common/syscalls.o

.debug_macro    0x00000000    0x2e30c
 .debug_macro   0x00000000      0x8ca ../../Build/m7/m7/main_m7.o
 .debug_macro   0x000008ca      0xc58 ../../Build/m7/m7/main_m7.o
 .debug_macro   0x00001522       0x49 ../../Build/m7/m7/main_m7.o
 .debug_macro   0x0000156b       0x1c ../../Build/m7/m7/main_m7.o
 .debug_macro   0x00001587       0x22 ../../Build/m7/m7/main_m7.o
 .debug_macro   0x000015a9       0x8e ../../Build/m7/m7/main_m7.o
 .debug_macro   0x00001637       0x51 ../../Build/m7/m7/main_m7.o
 .debug_macro   0x00001688      0x103 ../../Build/m7/m7/main_m7.o
 .debug_macro   0x0000178b       0x6a ../../Build/m7/m7/main_m7.o
 .debug_macro   0x000017f5      0x1df ../../Build/m7/m7/main_m7.o
 .debug_macro   0x000019d4       0x1c ../../Build/m7/m7/main_m7.o
 .debug_macro   0x000019f0       0x22 ../../Build/m7/m7/main_m7.o
 .debug_macro   0x00001a12       0xfb ../../Build/m7/m7/main_m7.o
 .debug_macro   0x00001b0d     0x1305 ../../Build/m7/m7/main_m7.o
 .debug_macro   0x00002e12      0x11f ../../Build/m7/m7/main_m7.o
 .debug_macro   0x00002f31       0x27 ../../Build/m7/m7/main_m7.o
 .debug_macro   0x00002f58    0x2737b ../../Build/m7/m7/main_m7.o
 .debug_macro   0x0002a2d3       0x28 ../../Build/m7/m7/main_m7.o
 .debug_macro   0x0002a2fb      0x1d5 ../../Build/m7/m7/main_m7.o
 .debug_macro   0x0002a4d0       0x10 ../../Build/m7/m7/main_m7.o
 .debug_macro   0x0002a4e0       0xcf ../../Build/m7/m7/main_m7.o
 .debug_macro   0x0002a5af      0x103 ../../Build/m7/m7/main_m7.o
 .debug_macro   0x0002a6b2      0x345 ../../Build/m7/m7/main_m7.o
 .debug_macro   0x0002a9f7      0x190 ../../Build/m7/m7/main_m7.o
 .debug_macro   0x0002ab87       0xa2 ../../Build/m7/m7/main_m7.o
 .debug_macro   0x0002ac29       0x10 ../../Build/m7/m7/main_m7.o
 .debug_macro   0x0002ac39       0x26 ../../Build/m7/m7/main_m7.o
 .debug_macro   0x0002ac5f       0x18 ../../Build/m7/m7/main_m7.o
 .debug_macro   0x0002ac77       0x10 ../../Build/m7/m7/main_m7.o
 .debug_macro   0x0002ac87       0x11 ../../Build/m7/m7/main_m7.o
 .debug_macro   0x0002ac98       0x1f ../../Build/m7/m7/main_m7.o
 .debug_macro   0x0002acb7       0x1c ../../Build/m7/m7/main_m7.o
 .debug_macro   0x0002acd3       0x18 ../../Build/m7/m7/main_m7.o
 .debug_macro   0x0002aceb       0x4f ../../Build/m7/m7/main_m7.o
 .debug_macro   0x0002ad3a       0x17 ../../Build/m7/m7/main_m7.o
 .debug_macro   0x0002ad51       0x10 ../../Build/m7/m7/main_m7.o
 .debug_macro   0x0002ad61       0x28 ../../Build/m7/m7/main_m7.o
 .debug_macro   0x0002ad89       0x2e ../../Build/m7/m7/main_m7.o
 .debug_macro   0x0002adb7       0x16 ../../Build/m7/m7/main_m7.o
 .debug_macro   0x0002adcd       0x19 ../../Build/m7/m7/main_m7.o
 .debug_macro   0x0002ade6       0x20 ../../Build/m7/m7/main_m7.o
 .debug_macro   0x0002ae06       0x88 ../../Build/m7/m7/main_m7.o
 .debug_macro   0x0002ae8e       0x19 ../../Build/m7/m7/main_m7.o
 .debug_macro   0x0002aea7       0x32 ../../Build/m7/m7/main_m7.o
 .debug_macro   0x0002aed9       0x11 ../../Build/m7/m7/main_m7.o
 .debug_macro   0x0002aeea       0x17 ../../Build/m7/m7/main_m7.o
 .debug_macro   0x0002af01       0x18 ../../Build/m7/m7/main_m7.o
 .debug_macro   0x0002af19       0x2d ../../Build/m7/m7/main_m7.o
 .debug_macro   0x0002af46       0x11 ../../Build/m7/m7/main_m7.o
 .debug_macro   0x0002af57       0x11 ../../Build/m7/m7/main_m7.o
 .debug_macro   0x0002af68       0x1c ../../Build/m7/m7/main_m7.o
 .debug_macro   0x0002af84       0x18 ../../Build/m7/m7/main_m7.o
 .debug_macro   0x0002af9c       0x26 ../../Build/m7/m7/main_m7.o
 .debug_macro   0x0002afc2       0x25 ../../Build/m7/m7/main_m7.o
 .debug_macro   0x0002afe7       0x61 ../../Build/m7/m7/main_m7.o
 .debug_macro   0x0002b048       0x2a ../../Build/m7/m7/main_m7.o
 .debug_macro   0x0002b072       0x43 ../../Build/m7/m7/main_m7.o
 .debug_macro   0x0002b0b5       0x34 ../../Build/m7/m7/main_m7.o
 .debug_macro   0x0002b0e9       0x16 ../../Build/m7/m7/main_m7.o
 .debug_macro   0x0002b0ff       0x43 ../../Build/m7/m7/main_m7.o
 .debug_macro   0x0002b142       0x34 ../../Build/m7/m7/main_m7.o
 .debug_macro   0x0002b176       0x10 ../../Build/m7/m7/main_m7.o
 .debug_macro   0x0002b186       0x58 ../../Build/m7/m7/main_m7.o
 .debug_macro   0x0002b1de       0x8e ../../Build/m7/m7/main_m7.o
 .debug_macro   0x0002b26c       0x16 ../../Build/m7/m7/main_m7.o
 .debug_macro   0x0002b282      0x177 ../../Build/m7/m7/main_m7.o
 .debug_macro   0x0002b3f9       0x1c ../../Build/m7/m7/main_m7.o
 .debug_macro   0x0002b415       0x3c ../../Build/m7/m7/main_m7.o
 .debug_macro   0x0002b451      0x38c ../../Build/m7/m7/main_m7.o
 .debug_macro   0x0002b7dd       0x10 ../../Build/m7/m7/main_m7.o
 .debug_macro   0x0002b7ed       0x10 ../../Build/m7/m7/main_m7.o
 .debug_macro   0x0002b7fd       0x33 ../../Build/m7/m7/main_m7.o
 .debug_macro   0x0002b830      0x173 ../../Build/m7/m7/main_m7.o
 .debug_macro   0x0002b9a3       0x10 ../../Build/m7/m7/main_m7.o
 .debug_macro   0x0002b9b3       0x10 ../../Build/m7/m7/main_m7.o
 .debug_macro   0x0002b9c3       0x10 ../../Build/m7/m7/main_m7.o
 .debug_macro   0x0002b9d3       0x11 ../../Build/m7/m7/main_m7.o
 .debug_macro   0x0002b9e4       0x11 ../../Build/m7/m7/main_m7.o
 .debug_macro   0x0002b9f5       0x10 ../../Build/m7/m7/main_m7.o
 .debug_macro   0x0002ba05       0x35 ../../Build/m7/m7/main_m7.o
 .debug_macro   0x0002ba3a       0x5e ../../Build/m7/m7/main_m7.o
 .debug_macro   0x0002ba98       0x16 ../../Build/m7/m7/main_m7.o
 .debug_macro   0x0002baae       0x52 ../../Build/m7/m7/main_m7.o
 .debug_macro   0x0002bb00       0x5e ../../Build/m7/m7/main_m7.o
 .debug_macro   0x0002bb5e       0x11 ../../Build/m7/m7/main_m7.o
 .debug_macro   0x0002bb6f       0x2f ../../Build/m7/m7/main_m7.o
 .debug_macro   0x0002bb9e       0x16 ../../Build/m7/m7/main_m7.o
 .debug_macro   0x0002bbb4       0x10 ../../Build/m7/m7/main_m7.o
 .debug_macro   0x0002bbc4       0x17 ../../Build/m7/m7/main_m7.o
 .debug_macro   0x0002bbdb       0x10 ../../Build/m7/m7/main_m7.o
 .debug_macro   0x0002bbeb       0x16 ../../Build/m7/m7/main_m7.o
 .debug_macro   0x0002bc01       0x16 ../../Build/m7/m7/main_m7.o
 .debug_macro   0x0002bc17       0x29 ../../Build/m7/m7/main_m7.o
 .debug_macro   0x0002bc40       0x1c ../../Build/m7/m7/main_m7.o
 .debug_macro   0x0002bc5c       0xde ../../Build/m7/m7/main_m7.o
 .debug_macro   0x0002bd3a       0x1c ../../Build/m7/m7/main_m7.o
 .debug_macro   0x0002bd56       0x10 ../../Build/m7/m7/main_m7.o
 .debug_macro   0x0002bd66       0x16 ../../Build/m7/m7/main_m7.o
 .debug_macro   0x0002bd7c      0x131 ../../Build/m7/m7/main_m7.o
 .debug_macro   0x0002bead      0x11d ../../Build/m7/m7/main_m7.o
 .debug_macro   0x0002bfca       0x10 ../../Build/m7/m7/main_m7.o
 .debug_macro   0x0002bfda      0x242 ../../Build/m7/m7/main_m7.o
 .debug_macro   0x0002c21c       0x19 ../../Build/m7/m7/main_m7.o
 .debug_macro   0x0002c235       0x18 ../../Build/m7/m7/main_m7.o
 .debug_macro   0x0002c24d       0x17 ../../Build/m7/m7/main_m7.o
 .debug_macro   0x0002c264       0x10 ../../Build/m7/m7/main_m7.o
 .debug_macro   0x0002c274       0x10 ../../Build/m7/m7/main_m7.o
 .debug_macro   0x0002c284       0x76 ../../Build/m7/m7/main_m7.o
 .debug_macro   0x0002c2fa       0x1c ../../Build/m7/m7/main_m7.o
 .debug_macro   0x0002c316       0x12 ../../Build/m7/m7/main_m7.o
 .debug_macro   0x0002c328       0x12 ../../Build/m7/m7/main_m7.o
 .debug_macro   0x0002c33a       0x4c ../../Build/m7/m7/main_m7.o
 .debug_macro   0x0002c386       0x2e ../../Build/m7/m7/main_m7.o
 .debug_macro   0x0002c3b4       0x3b ../../Build/m7/m7/main_m7.o
 .debug_macro   0x0002c3ef       0x10 ../../Build/m7/m7/main_m7.o
 .debug_macro   0x0002c3ff       0x11 ../../Build/m7/m7/main_m7.o
 .debug_macro   0x0002c410       0x12 ../../Build/m7/m7/main_m7.o
 .debug_macro   0x0002c422       0x10 ../../Build/m7/m7/main_m7.o
 .debug_macro   0x0002c432      0x103 ../../Build/m7/Common/sysmem.o
 .debug_macro   0x0002c535      0xaa8 ../../Build/m7/Common/sysmem.o
 .debug_macro   0x0002cfdd       0x5b ../../Build/m7/Common/sysmem.o
 .debug_macro   0x0002d038       0x94 ../../Build/m7/Common/sysmem.o
 .debug_macro   0x0002d0cc       0x34 ../../Build/m7/Common/sysmem.o
 .debug_macro   0x0002d100      0x189 ../../Build/m7/Common/sysmem.o
 .debug_macro   0x0002d289       0x43 ../../Build/m7/Common/sysmem.o
 .debug_macro   0x0002d2cc       0x57 ../../Build/m7/Common/sysmem.o
 .debug_macro   0x0002d323       0x1c ../../Build/m7/Common/sysmem.o
 .debug_macro   0x0002d33f      0x23c ../../Build/m7/Common/sysmem.o
 .debug_macro   0x0002d57b      0x274 ../../Build/m7/Common/syscalls.o
 .debug_macro   0x0002d7ef      0x369 ../../Build/m7/Common/syscalls.o
 .debug_macro   0x0002db58       0x10 ../../Build/m7/Common/syscalls.o
 .debug_macro   0x0002db68       0x35 ../../Build/m7/Common/syscalls.o
 .debug_macro   0x0002db9d       0x10 ../../Build/m7/Common/syscalls.o
 .debug_macro   0x0002dbad       0x10 ../../Build/m7/Common/syscalls.o
 .debug_macro   0x0002dbbd       0x10 ../../Build/m7/Common/syscalls.o
 .debug_macro   0x0002dbcd       0x1c ../../Build/m7/Common/syscalls.o
 .debug_macro   0x0002dbe9       0x52 ../../Build/m7/Common/syscalls.o
 .debug_macro   0x0002dc3b       0x22 ../../Build/m7/Common/syscalls.o
 .debug_macro   0x0002dc5d       0x10 ../../Build/m7/Common/syscalls.o
 .debug_macro   0x0002dc6d       0x52 ../../Build/m7/Common/syscalls.o
 .debug_macro   0x0002dcbf       0xcf ../../Build/m7/Common/syscalls.o
 .debug_macro   0x0002dd8e       0x1c ../../Build/m7/Common/syscalls.o
 .debug_macro   0x0002ddaa       0x3d ../../Build/m7/Common/syscalls.o
 .debug_macro   0x0002dde7       0x35 ../../Build/m7/Common/syscalls.o
 .debug_macro   0x0002de1c      0x12c ../../Build/m7/Common/syscalls.o
 .debug_macro   0x0002df48       0x10 ../../Build/m7/Common/syscalls.o
 .debug_macro   0x0002df58      0x146 ../../Build/m7/Common/syscalls.o
 .debug_macro   0x0002e09e      0x18a ../../Build/m7/Common/syscalls.o
 .debug_macro   0x0002e228       0x16 ../../Build/m7/Common/syscalls.o
 .debug_macro   0x0002e23e       0xce ../../Build/m7/Common/syscalls.o

.debug_line     0x00000000     0x1729
 .debug_line    0x00000000      0xfc4 ../../Build/m7/m7/main_m7.o
 .debug_line    0x00000fc4      0x21b ../../Build/m7/Common/sysmem.o
 .debug_line    0x000011df      0x54a ../../Build/m7/Common/syscalls.o

.debug_str      0x00000000    0xfbe23
 .debug_str     0x00000000    0xf9f4e ../../Build/m7/m7/main_m7.o
                              0xfa5aa (size before relaxing)
 .debug_str     0x000f9f4e      0x2af ../../Build/m7/Common/sysmem.o
                               0x609e (size before relaxing)
 .debug_str     0x000fa1fd     0x1c26 ../../Build/m7/Common/syscalls.o
                               0x9886 (size before relaxing)

.comment        0x00000000       0x45
 .comment       0x00000000       0x45 ../../Build/m7/m7/main_m7.o
                                 0x46 (size before relaxing)
 .comment       0x00000045       0x46 ../../Build/m7/Common/sysmem.o
 .comment       0x00000045       0x46 ../../Build/m7/Common/syscalls.o

.debug_frame    0x00000000     0x1748
 .debug_frame   0x00000000      0x268 ../../Build/m7/m7/main_m7.o
 .debug_frame   0x00000268       0x34 ../../Build/m7/Common/sysmem.o
 .debug_frame   0x0000029c      0x2ac ../../Build/m7/Common/syscalls.o
 .debug_frame   0x00000548      0x12c /usr/bin/../lib/gcc/arm-none-eabi/12.3.1/../../../../arm-none-eabi/lib/thumb/v7e-m+fp/hard/libstdc++_nano.a(eh_personality.o)
 .debug_frame   0x00000674       0xb0 /usr/bin/../lib/gcc/arm-none-eabi/12.3.1/../../../../arm-none-eabi/lib/thumb/v7e-m+fp/hard/libstdc++_nano.a(eh_terminate.o)
 .debug_frame   0x00000724       0x78 /usr/bin/../lib/gcc/arm-none-eabi/12.3.1/../../../../arm-none-eabi/lib/thumb/v7e-m+fp/hard/libstdc++_nano.a(eh_arm.o)
 .debug_frame   0x0000079c       0x50 /usr/bin/../lib/gcc/arm-none-eabi/12.3.1/../../../../arm-none-eabi/lib/thumb/v7e-m+fp/hard/libstdc++_nano.a(eh_call.o)
 .debug_frame   0x000007ec       0x8c /usr/bin/../lib/gcc/arm-none-eabi/12.3.1/../../../../arm-none-eabi/lib/thumb/v7e-m+fp/hard/libstdc++_nano.a(eh_catch.o)
 .debug_frame   0x00000878       0xf0 /usr/bin/../lib/gcc/arm-none-eabi/12.3.1/../../../../arm-none-eabi/lib/thumb/v7e-m+fp/hard/libstdc++_nano.a(eh_exception.o)
 .debug_frame   0x00000968       0x50 /usr/bin/../lib/gcc/arm-none-eabi/12.3.1/../../../../arm-none-eabi/lib/thumb/v7e-m+fp/hard/libstdc++_nano.a(eh_globals.o)
 .debug_frame   0x000009b8       0xd4 /usr/bin/../lib/gcc/arm-none-eabi/12.3.1/../../../../arm-none-eabi/lib/thumb/v7e-m+fp/hard/libstdc++_nano.a(si_class_type_info.o)
 .debug_frame   0x00000a8c       0x80 /usr/bin/../lib/gcc/arm-none-eabi/12.3.1/../../../../arm-none-eabi/lib/thumb/v7e-m+fp/hard/libstdc++_nano.a(tinfo.o)
 .debug_frame   0x00000b0c       0x20 /usr/bin/../lib/gcc/arm-none-eabi/12.3.1/../../../../arm-none-eabi/lib/thumb/v7e-m+fp/hard/libstdc++_nano.a(atexit_arm.o)
 .debug_frame   0x00000b2c       0xd8 /usr/bin/../lib/gcc/arm-none-eabi/12.3.1/../../../../arm-none-eabi/lib/thumb/v7e-m+fp/hard/libstdc++_nano.a(class_type_info.o)
 .debug_frame   0x00000c04       0x20 /usr/bin/../lib/gcc/arm-none-eabi/12.3.1/../../../../arm-none-eabi/lib/thumb/v7e-m+fp/hard/libstdc++_nano.a(del_ops.o)
 .debug_frame   0x00000c24       0x20 /usr/bin/../lib/gcc/arm-none-eabi/12.3.1/../../../../arm-none-eabi/lib/thumb/v7e-m+fp/hard/libstdc++_nano.a(del_op.o)
 .debug_frame   0x00000c44       0x28 /usr/bin/../lib/gcc/arm-none-eabi/12.3.1/../../../../arm-none-eabi/lib/thumb/v7e-m+fp/hard/libc_nano.a(libc_a-exit.o)
 .debug_frame   0x00000c6c       0x2c /usr/bin/../lib/gcc/arm-none-eabi/12.3.1/../../../../arm-none-eabi/lib/thumb/v7e-m+fp/hard/libc_nano.a(libc_a-init.o)
 .debug_frame   0x00000c98       0x20 /usr/bin/../lib/gcc/arm-none-eabi/12.3.1/../../../../arm-none-eabi/lib/thumb/v7e-m+fp/hard/libc_nano.a(libc_a-strcmp.o)
 .debug_frame   0x00000cb8       0x30 /usr/bin/../lib/gcc/arm-none-eabi/12.3.1/../../../../arm-none-eabi/lib/thumb/v7e-m+fp/hard/libc_nano.a(libc_a-malloc.o)
 .debug_frame   0x00000ce8       0x50 /usr/bin/../lib/gcc/arm-none-eabi/12.3.1/../../../../arm-none-eabi/lib/thumb/v7e-m+fp/hard/libc_nano.a(libc_a-mallocr.o)
 .debug_frame   0x00000d38       0x28 /usr/bin/../lib/gcc/arm-none-eabi/12.3.1/../../../../arm-none-eabi/lib/thumb/v7e-m+fp/hard/libc_nano.a(libc_a-abort.o)
 .debug_frame   0x00000d60       0x28 /usr/bin/../lib/gcc/arm-none-eabi/12.3.1/../../../../arm-none-eabi/lib/thumb/v7e-m+fp/hard/libc_nano.a(libc_a-cxa_atexit.o)
 .debug_frame   0x00000d88      0x144 /usr/bin/../lib/gcc/arm-none-eabi/12.3.1/../../../../arm-none-eabi/lib/thumb/v7e-m+fp/hard/libc_nano.a(libc_a-findfp.o)
 .debug_frame   0x00000ecc       0x88 /usr/bin/../lib/gcc/arm-none-eabi/12.3.1/../../../../arm-none-eabi/lib/thumb/v7e-m+fp/hard/libc_nano.a(libc_a-stdio.o)
 .debug_frame   0x00000f54       0x30 /usr/bin/../lib/gcc/arm-none-eabi/12.3.1/../../../../arm-none-eabi/lib/thumb/v7e-m+fp/hard/libc_nano.a(libc_a-mlock.o)
 .debug_frame   0x00000f84       0x2c /usr/bin/../lib/gcc/arm-none-eabi/12.3.1/../../../../arm-none-eabi/lib/thumb/v7e-m+fp/hard/libc_nano.a(libc_a-sbrkr.o)
 .debug_frame   0x00000fb0       0x2c /usr/bin/../lib/gcc/arm-none-eabi/12.3.1/../../../../arm-none-eabi/lib/thumb/v7e-m+fp/hard/libc_nano.a(libc_a-writer.o)
 .debug_frame   0x00000fdc       0x20 /usr/bin/../lib/gcc/arm-none-eabi/12.3.1/../../../../arm-none-eabi/lib/thumb/v7e-m+fp/hard/libc_nano.a(libc_a-errno.o)
 .debug_frame   0x00000ffc       0x34 /usr/bin/../lib/gcc/arm-none-eabi/12.3.1/../../../../arm-none-eabi/lib/thumb/v7e-m+fp/hard/libc_nano.a(libc_a-fwalk.o)
 .debug_frame   0x00001030       0x20 /usr/bin/../lib/gcc/arm-none-eabi/12.3.1/../../../../arm-none-eabi/lib/thumb/v7e-m+fp/hard/libc_nano.a(libc_a-memset.o)
 .debug_frame   0x00001050       0x38 /usr/bin/../lib/gcc/arm-none-eabi/12.3.1/../../../../arm-none-eabi/lib/thumb/v7e-m+fp/hard/libc_nano.a(libc_a-freer.o)
 .debug_frame   0x00001088       0xb0 /usr/bin/../lib/gcc/arm-none-eabi/12.3.1/../../../../arm-none-eabi/lib/thumb/v7e-m+fp/hard/libc_nano.a(libc_a-lock.o)
 .debug_frame   0x00001138       0x2c /usr/bin/../lib/gcc/arm-none-eabi/12.3.1/../../../../arm-none-eabi/lib/thumb/v7e-m+fp/hard/libc_nano.a(libc_a-closer.o)
 .debug_frame   0x00001164       0x38 /usr/bin/../lib/gcc/arm-none-eabi/12.3.1/../../../../arm-none-eabi/lib/thumb/v7e-m+fp/hard/libc_nano.a(libc_a-reent.o)
 .debug_frame   0x0000119c       0x5c /usr/bin/../lib/gcc/arm-none-eabi/12.3.1/../../../../arm-none-eabi/lib/thumb/v7e-m+fp/hard/libc_nano.a(libc_a-fflush.o)
 .debug_frame   0x000011f8       0xcc /usr/bin/../lib/gcc/arm-none-eabi/12.3.1/../../../../arm-none-eabi/lib/thumb/v7e-m+fp/hard/libc_nano.a(libc_a-signal.o)
 .debug_frame   0x000012c4       0x2c /usr/bin/../lib/gcc/arm-none-eabi/12.3.1/../../../../arm-none-eabi/lib/thumb/v7e-m+fp/hard/libc_nano.a(libc_a-lseekr.o)
 .debug_frame   0x000012f0       0x2c /usr/bin/../lib/gcc/arm-none-eabi/12.3.1/../../../../arm-none-eabi/lib/thumb/v7e-m+fp/hard/libc_nano.a(libc_a-readr.o)
 .debug_frame   0x0000131c       0x3c /usr/bin/../lib/gcc/arm-none-eabi/12.3.1/../../../../arm-none-eabi/lib/thumb/v7e-m+fp/hard/libc_nano.a(libc_a-signalr.o)
 .debug_frame   0x00001358      0x2c4 /usr/bin/../lib/gcc/arm-none-eabi/12.3.1/thumb/v7e-m+fp/hard/libgcc.a(unwind-arm.o)
 .debug_frame   0x0000161c      0x104 /usr/bin/../lib/gcc/arm-none-eabi/12.3.1/thumb/v7e-m+fp/hard/libgcc.a(pr-support.o)
 .debug_frame   0x00001720       0x28 /usr/bin/../lib/gcc/arm-none-eabi/12.3.1/../../../../arm-none-eabi/lib/thumb/v7e-m+fp/hard/libc_nano.a(libc_a-memcpy-stub.o)

Cross Reference Table

Symbol                                            File
A                                                 ../../Build/m7/m7/main_m7.o
ADC3_IRQHandler                                   ../../Build/m7/Startup/startup_stm32h755xx.o
ADC_IRQHandler                                    ../../Build/m7/Startup/startup_stm32h755xx.o
BDMA_Channel0_IRQHandler                          ../../Build/m7/Startup/startup_stm32h755xx.o
BDMA_Channel1_IRQHandler                          ../../Build/m7/Startup/startup_stm32h755xx.o
BDMA_Channel2_IRQHandler                          ../../Build/m7/Startup/startup_stm32h755xx.o
BDMA_Channel3_IRQHandler                          ../../Build/m7/Startup/startup_stm32h755xx.o
BDMA_Channel4_IRQHandler                          ../../Build/m7/Startup/startup_stm32h755xx.o
BDMA_Channel5_IRQHandler                          ../../Build/m7/Startup/startup_stm32h755xx.o
BDMA_Channel6_IRQHandler                          ../../Build/m7/Startup/startup_stm32h755xx.o
BDMA_Channel7_IRQHandler                          ../../Build/m7/Startup/startup_stm32h755xx.o
BusFault_Handler                                  ../../Build/m7/Startup/startup_stm32h755xx.o
CEC_IRQHandler                                    ../../Build/m7/Startup/startup_stm32h755xx.o
CM4_SEV_IRQHandler                                ../../Build/m7/Startup/startup_stm32h755xx.o
CM7_SEV_IRQHandler                                ../../Build/m7/Startup/startup_stm32h755xx.o
COMP1_IRQHandler                                  ../../Build/m7/Startup/startup_stm32h755xx.o
CRS_IRQHandler                                    ../../Build/m7/Startup/startup_stm32h755xx.o
CRYP_IRQHandler                                   ../../Build/m7/Startup/startup_stm32h755xx.o
DCMI_IRQHandler                                   ../../Build/m7/Startup/startup_stm32h755xx.o
DFSDM1_FLT0_IRQHandler                            ../../Build/m7/Startup/startup_stm32h755xx.o
DFSDM1_FLT1_IRQHandler                            ../../Build/m7/Startup/startup_stm32h755xx.o
DFSDM1_FLT2_IRQHandler                            ../../Build/m7/Startup/startup_stm32h755xx.o
DFSDM1_FLT3_IRQHandler                            ../../Build/m7/Startup/startup_stm32h755xx.o
DMA1_Stream0_IRQHandler                           ../../Build/m7/Startup/startup_stm32h755xx.o
DMA1_Stream1_IRQHandler                           ../../Build/m7/Startup/startup_stm32h755xx.o
DMA1_Stream2_IRQHandler                           ../../Build/m7/Startup/startup_stm32h755xx.o
DMA1_Stream3_IRQHandler                           ../../Build/m7/Startup/startup_stm32h755xx.o
DMA1_Stream4_IRQHandler                           ../../Build/m7/Startup/startup_stm32h755xx.o
DMA1_Stream5_IRQHandler                           ../../Build/m7/Startup/startup_stm32h755xx.o
DMA1_Stream6_IRQHandler                           ../../Build/m7/Startup/startup_stm32h755xx.o
DMA1_Stream7_IRQHandler                           ../../Build/m7/Startup/startup_stm32h755xx.o
DMA2D_IRQHandler                                  ../../Build/m7/Startup/startup_stm32h755xx.o
DMA2_Stream0_IRQHandler                           ../../Build/m7/Startup/startup_stm32h755xx.o
DMA2_Stream1_IRQHandler                           ../../Build/m7/Startup/startup_stm32h755xx.o
DMA2_Stream2_IRQHandler                           ../../Build/m7/Startup/startup_stm32h755xx.o
DMA2_Stream3_IRQHandler                           ../../Build/m7/Startup/startup_stm32h755xx.o
DMA2_Stream4_IRQHandler                           ../../Build/m7/Startup/startup_stm32h755xx.o
DMA2_Stream5_IRQHandler                           ../../Build/m7/Startup/startup_stm32h755xx.o
DMA2_Stream6_IRQHandler                           ../../Build/m7/Startup/startup_stm32h755xx.o
DMA2_Stream7_IRQHandler                           ../../Build/m7/Startup/startup_stm32h755xx.o
DMAMUX1_OVR_IRQHandler                            ../../Build/m7/Startup/startup_stm32h755xx.o
DMAMUX2_OVR_IRQHandler                            ../../Build/m7/Startup/startup_stm32h755xx.o
DebugMon_Handler                                  ../../Build/m7/Startup/startup_stm32h755xx.o
Default_Handler                                   ../../Build/m7/Startup/startup_stm32h755xx.o
ECC_IRQHandler                                    ../../Build/m7/Startup/startup_stm32h755xx.o
ETH_IRQHandler                                    ../../Build/m7/Startup/startup_stm32h755xx.o
ETH_WKUP_IRQHandler                               ../../Build/m7/Startup/startup_stm32h755xx.o
EXTI0_IRQHandler                                  ../../Build/m7/Startup/startup_stm32h755xx.o
EXTI15_10_IRQHandler                              ../../Build/m7/Startup/startup_stm32h755xx.o
EXTI1_IRQHandler                                  ../../Build/m7/Startup/startup_stm32h755xx.o
EXTI2_IRQHandler                                  ../../Build/m7/Startup/startup_stm32h755xx.o
EXTI3_IRQHandler                                  ../../Build/m7/Startup/startup_stm32h755xx.o
EXTI4_IRQHandler                                  ../../Build/m7/Startup/startup_stm32h755xx.o
EXTI9_5_IRQHandler                                ../../Build/m7/Startup/startup_stm32h755xx.o
FDCAN1_IT0_IRQHandler                             ../../Build/m7/Startup/startup_stm32h755xx.o
FDCAN1_IT1_IRQHandler                             ../../Build/m7/Startup/startup_stm32h755xx.o
FDCAN2_IT0_IRQHandler                             ../../Build/m7/Startup/startup_stm32h755xx.o
FDCAN2_IT1_IRQHandler                             ../../Build/m7/Startup/startup_stm32h755xx.o
FDCAN_CAL_IRQHandler                              ../../Build/m7/Startup/startup_stm32h755xx.o
FLASH_IRQHandler                                  ../../Build/m7/Startup/startup_stm32h755xx.o
FMC_IRQHandler                                    ../../Build/m7/Startup/startup_stm32h755xx.o
FPU_IRQHandler                                    ../../Build/m7/Startup/startup_stm32h755xx.o
HASH_RNG_IRQHandler                               ../../Build/m7/Startup/startup_stm32h755xx.o
HOLD_CORE_IRQHandler                              ../../Build/m7/Startup/startup_stm32h755xx.o
HRTIM1_FLT_IRQHandler                             ../../Build/m7/Startup/startup_stm32h755xx.o
HRTIM1_Master_IRQHandler                          ../../Build/m7/Startup/startup_stm32h755xx.o
HRTIM1_TIMA_IRQHandler                            ../../Build/m7/Startup/startup_stm32h755xx.o
HRTIM1_TIMB_IRQHandler                            ../../Build/m7/Startup/startup_stm32h755xx.o
HRTIM1_TIMC_IRQHandler                            ../../Build/m7/Startup/startup_stm32h755xx.o
HRTIM1_TIMD_IRQHandler                            ../../Build/m7/Startup/startup_stm32h755xx.o
HRTIM1_TIME_IRQHandler                            ../../Build/m7/Startup/startup_stm32h755xx.o
HSEM1_IRQHandler                                  ../../Build/m7/Startup/startup_stm32h755xx.o
HSEM2_IRQHandler                                  ../../Build/m7/Startup/startup_stm32h755xx.o
HardFault_Handler                                 ../../Build/m7/Startup/startup_stm32h755xx.o
I2C1_ER_IRQHandler                                ../../Build/m7/Startup/startup_stm32h755xx.o
I2C1_EV_IRQHandler                                ../../Build/m7/Startup/startup_stm32h755xx.o
I2C2_ER_IRQHandler                                ../../Build/m7/Startup/startup_stm32h755xx.o
I2C2_EV_IRQHandler                                ../../Build/m7/Startup/startup_stm32h755xx.o
I2C3_ER_IRQHandler                                ../../Build/m7/Startup/startup_stm32h755xx.o
I2C3_EV_IRQHandler                                ../../Build/m7/Startup/startup_stm32h755xx.o
I2C4_ER_IRQHandler                                ../../Build/m7/Startup/startup_stm32h755xx.o
I2C4_EV_IRQHandler                                ../../Build/m7/Startup/startup_stm32h755xx.o
InputPinHandler<unsigned long volatile* [2]>::InputPinHandler(unsigned long volatile* const (&) [2]) ../../Build/m7/m7/main_m7.o
InputPinHandler<unsigned long volatile* [2]>::temp() ../../Build/m7/m7/main_m7.o
InputPinHandler<unsigned long volatile* [2]>::~InputPinHandler() ../../Build/m7/m7/main_m7.o
InputPinHandler<unsigned long volatile* [2]>::~InputPinHandler() ../../Build/m7/m7/main_m7.o
JPEG_IRQHandler                                   ../../Build/m7/Startup/startup_stm32h755xx.o
LPTIM1_IRQHandler                                 ../../Build/m7/Startup/startup_stm32h755xx.o
LPTIM2_IRQHandler                                 ../../Build/m7/Startup/startup_stm32h755xx.o
LPTIM3_IRQHandler                                 ../../Build/m7/Startup/startup_stm32h755xx.o
LPTIM4_IRQHandler                                 ../../Build/m7/Startup/startup_stm32h755xx.o
LPTIM5_IRQHandler                                 ../../Build/m7/Startup/startup_stm32h755xx.o
LPUART1_IRQHandler                                ../../Build/m7/Startup/startup_stm32h755xx.o
LTDC_ER_IRQHandler                                ../../Build/m7/Startup/startup_stm32h755xx.o
LTDC_IRQHandler                                   ../../Build/m7/Startup/startup_stm32h755xx.o
MDIOS_IRQHandler                                  ../../Build/m7/Startup/startup_stm32h755xx.o
MDIOS_WKUP_IRQHandler                             ../../Build/m7/Startup/startup_stm32h755xx.o
MDMA_IRQHandler                                   ../../Build/m7/Startup/startup_stm32h755xx.o
MemManage_Handler                                 ../../Build/m7/Startup/startup_stm32h755xx.o
NMI_Handler                                       ../../Build/m7/Startup/startup_stm32h755xx.o
OTG_FS_EP1_IN_IRQHandler                          ../../Build/m7/Startup/startup_stm32h755xx.o
OTG_FS_EP1_OUT_IRQHandler                         ../../Build/m7/Startup/startup_stm32h755xx.o
OTG_FS_IRQHandler                                 ../../Build/m7/Startup/startup_stm32h755xx.o
OTG_FS_WKUP_IRQHandler                            ../../Build/m7/Startup/startup_stm32h755xx.o
OTG_HS_EP1_IN_IRQHandler                          ../../Build/m7/Startup/startup_stm32h755xx.o
OTG_HS_EP1_OUT_IRQHandler                         ../../Build/m7/Startup/startup_stm32h755xx.o
OTG_HS_IRQHandler                                 ../../Build/m7/Startup/startup_stm32h755xx.o
OTG_HS_WKUP_IRQHandler                            ../../Build/m7/Startup/startup_stm32h755xx.o
PVD_AVD_IRQHandler                                ../../Build/m7/Startup/startup_stm32h755xx.o
PendSV_Handler                                    ../../Build/m7/Startup/startup_stm32h755xx.o
PeripheralHandlerBase<Utils::TypeList<pair<(InputPinProperties)0, bool>, pair<(InputPinProperties)1, int> >, unsigned long volatile* [2], InputPinHandler<unsigned long volatile* [2]> >::PeripheralHandlerBase() ../../Build/m7/m7/main_m7.o
PeripheralHandlerBase<Utils::TypeList<pair<(InputPinProperties)0, bool>, pair<(InputPinProperties)1, int> >, unsigned long volatile* [2], InputPinHandler<unsigned long volatile* [2]> >::~PeripheralHandlerBase() ../../Build/m7/m7/main_m7.o
PeripheralHandlerBase<Utils::TypeList<pair<(InputPinProperties)0, bool>, pair<(InputPinProperties)1, int> >, unsigned long volatile* [2], InputPinHandler<unsigned long volatile* [2]> >::~PeripheralHandlerBase() ../../Build/m7/m7/main_m7.o
QUADSPI_IRQHandler                                ../../Build/m7/Startup/startup_stm32h755xx.o
RCC_IRQHandler                                    ../../Build/m7/Startup/startup_stm32h755xx.o
RTC_Alarm_IRQHandler                              ../../Build/m7/Startup/startup_stm32h755xx.o
RTC_WKUP_IRQHandler                               ../../Build/m7/Startup/startup_stm32h755xx.o
Reset_Handler                                     ../../Build/m7/Startup/startup_stm32h755xx.o
SAI1_IRQHandler                                   ../../Build/m7/Startup/startup_stm32h755xx.o
SAI2_IRQHandler                                   ../../Build/m7/Startup/startup_stm32h755xx.o
SAI3_IRQHandler                                   ../../Build/m7/Startup/startup_stm32h755xx.o
SAI4_IRQHandler                                   ../../Build/m7/Startup/startup_stm32h755xx.o
SDMMC1_IRQHandler                                 ../../Build/m7/Startup/startup_stm32h755xx.o
SDMMC2_IRQHandler                                 ../../Build/m7/Startup/startup_stm32h755xx.o
SPDIF_RX_IRQHandler                               ../../Build/m7/Startup/startup_stm32h755xx.o
SPI1_IRQHandler                                   ../../Build/m7/Startup/startup_stm32h755xx.o
SPI2_IRQHandler                                   ../../Build/m7/Startup/startup_stm32h755xx.o
SPI3_IRQHandler                                   ../../Build/m7/Startup/startup_stm32h755xx.o
SPI4_IRQHandler                                   ../../Build/m7/Startup/startup_stm32h755xx.o
SPI5_IRQHandler                                   ../../Build/m7/Startup/startup_stm32h755xx.o
SPI6_IRQHandler                                   ../../Build/m7/Startup/startup_stm32h755xx.o
SVC_Handler                                       ../../Build/m7/Startup/startup_stm32h755xx.o
SWPMI1_IRQHandler                                 ../../Build/m7/Startup/startup_stm32h755xx.o
SysTick_Handler                                   ../../Build/m7/Startup/startup_stm32h755xx.o
SystemInit                                        ../../Build/m7/m7/main_m7.o
                                                  ../../Build/m7/Startup/startup_stm32h755xx.o
TAMP_STAMP_IRQHandler                             ../../Build/m7/Startup/startup_stm32h755xx.o
TIM15_IRQHandler                                  ../../Build/m7/Startup/startup_stm32h755xx.o
TIM16_IRQHandler                                  ../../Build/m7/Startup/startup_stm32h755xx.o
TIM17_IRQHandler                                  ../../Build/m7/Startup/startup_stm32h755xx.o
TIM1_BRK_IRQHandler                               ../../Build/m7/Startup/startup_stm32h755xx.o
TIM1_CC_IRQHandler                                ../../Build/m7/Startup/startup_stm32h755xx.o
TIM1_TRG_COM_IRQHandler                           ../../Build/m7/Startup/startup_stm32h755xx.o
TIM1_UP_IRQHandler                                ../../Build/m7/Startup/startup_stm32h755xx.o
TIM2_IRQHandler                                   ../../Build/m7/Startup/startup_stm32h755xx.o
TIM3_IRQHandler                                   ../../Build/m7/Startup/startup_stm32h755xx.o
TIM4_IRQHandler                                   ../../Build/m7/Startup/startup_stm32h755xx.o
TIM5_IRQHandler                                   ../../Build/m7/Startup/startup_stm32h755xx.o
TIM6_DAC_IRQHandler                               ../../Build/m7/Startup/startup_stm32h755xx.o
TIM7_IRQHandler                                   ../../Build/m7/Startup/startup_stm32h755xx.o
TIM8_BRK_TIM12_IRQHandler                         ../../Build/m7/Startup/startup_stm32h755xx.o
TIM8_CC_IRQHandler                                ../../Build/m7/Startup/startup_stm32h755xx.o
TIM8_TRG_COM_TIM14_IRQHandler                     ../../Build/m7/Startup/startup_stm32h755xx.o
TIM8_UP_TIM13_IRQHandler                          ../../Build/m7/Startup/startup_stm32h755xx.o
UART4_IRQHandler                                  ../../Build/m7/Startup/startup_stm32h755xx.o
UART5_IRQHandler                                  ../../Build/m7/Startup/startup_stm32h755xx.o
UART7_IRQHandler                                  ../../Build/m7/Startup/startup_stm32h755xx.o
UART8_IRQHandler                                  ../../Build/m7/Startup/startup_stm32h755xx.o
USART1_IRQHandler                                 ../../Build/m7/Startup/startup_stm32h755xx.o
USART2_IRQHandler                                 ../../Build/m7/Startup/startup_stm32h755xx.o
USART3_IRQHandler                                 ../../Build/m7/Startup/startup_stm32h755xx.o
USART6_IRQHandler                                 ../../Build/m7/Startup/startup_stm32h755xx.o
UsageFault_Handler                                ../../Build/m7/Startup/startup_stm32h755xx.o
WAKEUP_PIN_IRQHandler                             ../../Build/m7/Startup/startup_stm32h755xx.o
WWDG_IRQHandler                                   ../../Build/m7/Startup/startup_stm32h755xx.o
WWDG_RST_IRQHandler                               ../../Build/m7/Startup/startup_stm32h755xx.o
_ITM_deregisterTMCloneTable                       /usr/bin/../lib/gcc/arm-none-eabi/12.3.1/thumb/v7e-m+fp/hard/crtbegin.o
_ITM_registerTMCloneTable                         /usr/bin/../lib/gcc/arm-none-eabi/12.3.1/thumb/v7e-m+fp/hard/crtbegin.o
_Min_Stack_Size                                   ../../Build/m7/Common/sysmem.o
_Unwind_Backtrace                                 /usr/bin/../lib/gcc/arm-none-eabi/12.3.1/thumb/v7e-m+fp/hard/libgcc.a(libunwind.o)
_Unwind_Complete                                  /usr/bin/../lib/gcc/arm-none-eabi/12.3.1/thumb/v7e-m+fp/hard/libgcc.a(unwind-arm.o)
                                                  /usr/bin/../lib/gcc/arm-none-eabi/12.3.1/../../../../arm-none-eabi/lib/thumb/v7e-m+fp/hard/libstdc++_nano.a(eh_catch.o)
_Unwind_DeleteException                           /usr/bin/../lib/gcc/arm-none-eabi/12.3.1/thumb/v7e-m+fp/hard/libgcc.a(unwind-arm.o)
                                                  /usr/bin/../lib/gcc/arm-none-eabi/12.3.1/../../../../arm-none-eabi/lib/thumb/v7e-m+fp/hard/libstdc++_nano.a(eh_catch.o)
_Unwind_ForcedUnwind                              /usr/bin/../lib/gcc/arm-none-eabi/12.3.1/thumb/v7e-m+fp/hard/libgcc.a(libunwind.o)
_Unwind_GetCFA                                    /usr/bin/../lib/gcc/arm-none-eabi/12.3.1/thumb/v7e-m+fp/hard/libgcc.a(unwind-arm.o)
_Unwind_GetDataRelBase                            /usr/bin/../lib/gcc/arm-none-eabi/12.3.1/thumb/v7e-m+fp/hard/libgcc.a(pr-support.o)
                                                  /usr/bin/../lib/gcc/arm-none-eabi/12.3.1/../../../../arm-none-eabi/lib/thumb/v7e-m+fp/hard/libstdc++_nano.a(eh_personality.o)
_Unwind_GetLanguageSpecificData                   /usr/bin/../lib/gcc/arm-none-eabi/12.3.1/thumb/v7e-m+fp/hard/libgcc.a(pr-support.o)
                                                  /usr/bin/../lib/gcc/arm-none-eabi/12.3.1/../../../../arm-none-eabi/lib/thumb/v7e-m+fp/hard/libstdc++_nano.a(eh_personality.o)
_Unwind_GetRegionStart                            /usr/bin/../lib/gcc/arm-none-eabi/12.3.1/thumb/v7e-m+fp/hard/libgcc.a(pr-support.o)
                                                  /usr/bin/../lib/gcc/arm-none-eabi/12.3.1/../../../../arm-none-eabi/lib/thumb/v7e-m+fp/hard/libstdc++_nano.a(eh_personality.o)
_Unwind_GetTextRelBase                            /usr/bin/../lib/gcc/arm-none-eabi/12.3.1/thumb/v7e-m+fp/hard/libgcc.a(pr-support.o)
                                                  /usr/bin/../lib/gcc/arm-none-eabi/12.3.1/../../../../arm-none-eabi/lib/thumb/v7e-m+fp/hard/libstdc++_nano.a(eh_personality.o)
_Unwind_RaiseException                            /usr/bin/../lib/gcc/arm-none-eabi/12.3.1/thumb/v7e-m+fp/hard/libgcc.a(libunwind.o)
_Unwind_Resume                                    /usr/bin/../lib/gcc/arm-none-eabi/12.3.1/thumb/v7e-m+fp/hard/libgcc.a(libunwind.o)
                                                  /usr/bin/../lib/gcc/arm-none-eabi/12.3.1/../../../../arm-none-eabi/lib/thumb/v7e-m+fp/hard/libstdc++_nano.a(eh_arm.o)
_Unwind_Resume_or_Rethrow                         /usr/bin/../lib/gcc/arm-none-eabi/12.3.1/thumb/v7e-m+fp/hard/libgcc.a(libunwind.o)
_Unwind_VRS_Get                                   /usr/bin/../lib/gcc/arm-none-eabi/12.3.1/thumb/v7e-m+fp/hard/libgcc.a(unwind-arm.o)
                                                  /usr/bin/../lib/gcc/arm-none-eabi/12.3.1/thumb/v7e-m+fp/hard/libgcc.a(pr-support.o)
                                                  /usr/bin/../lib/gcc/arm-none-eabi/12.3.1/../../../../arm-none-eabi/lib/thumb/v7e-m+fp/hard/libstdc++_nano.a(eh_personality.o)
_Unwind_VRS_Pop                                   /usr/bin/../lib/gcc/arm-none-eabi/12.3.1/thumb/v7e-m+fp/hard/libgcc.a(unwind-arm.o)
                                                  /usr/bin/../lib/gcc/arm-none-eabi/12.3.1/thumb/v7e-m+fp/hard/libgcc.a(pr-support.o)
_Unwind_VRS_Set                                   /usr/bin/../lib/gcc/arm-none-eabi/12.3.1/thumb/v7e-m+fp/hard/libgcc.a(unwind-arm.o)
                                                  /usr/bin/../lib/gcc/arm-none-eabi/12.3.1/thumb/v7e-m+fp/hard/libgcc.a(pr-support.o)
                                                  /usr/bin/../lib/gcc/arm-none-eabi/12.3.1/../../../../arm-none-eabi/lib/thumb/v7e-m+fp/hard/libstdc++_nano.a(eh_personality.o)
__TMC_END__                                       /usr/bin/../lib/gcc/arm-none-eabi/12.3.1/thumb/v7e-m+fp/hard/crtend.o
                                                  /usr/bin/../lib/gcc/arm-none-eabi/12.3.1/thumb/v7e-m+fp/hard/crtbegin.o
___Unwind_Backtrace                               /usr/bin/../lib/gcc/arm-none-eabi/12.3.1/thumb/v7e-m+fp/hard/libgcc.a(libunwind.o)
___Unwind_ForcedUnwind                            /usr/bin/../lib/gcc/arm-none-eabi/12.3.1/thumb/v7e-m+fp/hard/libgcc.a(libunwind.o)
___Unwind_RaiseException                          /usr/bin/../lib/gcc/arm-none-eabi/12.3.1/thumb/v7e-m+fp/hard/libgcc.a(libunwind.o)
___Unwind_Resume                                  /usr/bin/../lib/gcc/arm-none-eabi/12.3.1/thumb/v7e-m+fp/hard/libgcc.a(libunwind.o)
___Unwind_Resume_or_Rethrow                       /usr/bin/../lib/gcc/arm-none-eabi/12.3.1/thumb/v7e-m+fp/hard/libgcc.a(libunwind.o)
__aeabi_atexit                                    /usr/bin/../lib/gcc/arm-none-eabi/12.3.1/../../../../arm-none-eabi/lib/thumb/v7e-m+fp/hard/libstdc++_nano.a(atexit_arm.o)
                                                  /usr/bin/../lib/gcc/arm-none-eabi/12.3.1/../../../../arm-none-eabi/lib/thumb/v7e-m+fp/hard/libstdc++_nano.a(eh_globals.o)
__aeabi_unwind_cpp_pr0                            /usr/bin/../lib/gcc/arm-none-eabi/12.3.1/thumb/v7e-m+fp/hard/libgcc.a(unwind-arm.o)
                                                  /usr/bin/../lib/gcc/arm-none-eabi/12.3.1/thumb/v7e-m+fp/hard/libgcc.a(pr-support.o)
                                                  ../../Build/m7/Common/syscalls.o
__aeabi_unwind_cpp_pr1                            /usr/bin/../lib/gcc/arm-none-eabi/12.3.1/thumb/v7e-m+fp/hard/libgcc.a(unwind-arm.o)
                                                  /usr/bin/../lib/gcc/arm-none-eabi/12.3.1/thumb/v7e-m+fp/hard/libgcc.a(pr-support.o)
                                                  ../../Build/m7/Common/syscalls.o
                                                  ../../Build/m7/Common/sysmem.o
                                                  ../../Build/m7/m7/main_m7.o
__aeabi_unwind_cpp_pr2                            /usr/bin/../lib/gcc/arm-none-eabi/12.3.1/thumb/v7e-m+fp/hard/libgcc.a(unwind-arm.o)
__bss_end__                                       /usr/bin/../lib/gcc/arm-none-eabi/12.3.1/../../../../arm-none-eabi/lib/thumb/v7e-m+fp/hard/crt0.o
__bss_start__                                     /usr/bin/../lib/gcc/arm-none-eabi/12.3.1/../../../../arm-none-eabi/lib/thumb/v7e-m+fp/hard/crt0.o
__call_exitprocs                                  /usr/bin/../lib/gcc/arm-none-eabi/12.3.1/../../../../arm-none-eabi/lib/thumb/v7e-m+fp/hard/libc_nano.a(libc_a-exit.o)
__cxa_atexit                                      /usr/bin/../lib/gcc/arm-none-eabi/12.3.1/../../../../arm-none-eabi/lib/thumb/v7e-m+fp/hard/libc_nano.a(libc_a-cxa_atexit.o)
                                                  /usr/bin/../lib/gcc/arm-none-eabi/12.3.1/../../../../arm-none-eabi/lib/thumb/v7e-m+fp/hard/libstdc++_nano.a(atexit_arm.o)
__cxa_atexit_dummy                                /usr/bin/../lib/gcc/arm-none-eabi/12.3.1/../../../../arm-none-eabi/lib/thumb/v7e-m+fp/hard/libc_nano.a(libc_a-cxa_atexit.o)
__cxa_begin_catch                                 /usr/bin/../lib/gcc/arm-none-eabi/12.3.1/../../../../arm-none-eabi/lib/thumb/v7e-m+fp/hard/libstdc++_nano.a(eh_catch.o)
                                                  /usr/bin/../lib/gcc/arm-none-eabi/12.3.1/../../../../arm-none-eabi/lib/thumb/v7e-m+fp/hard/libstdc++_nano.a(eh_call.o)
__cxa_begin_cleanup                               /usr/bin/../lib/gcc/arm-none-eabi/12.3.1/../../../../arm-none-eabi/lib/thumb/v7e-m+fp/hard/libstdc++_nano.a(eh_arm.o)
                                                  /usr/bin/../lib/gcc/arm-none-eabi/12.3.1/thumb/v7e-m+fp/hard/libgcc.a(unwind-arm.o)
                                                  /usr/bin/../lib/gcc/arm-none-eabi/12.3.1/../../../../arm-none-eabi/lib/thumb/v7e-m+fp/hard/libstdc++_nano.a(eh_personality.o)
__cxa_call_terminate                              /usr/bin/../lib/gcc/arm-none-eabi/12.3.1/../../../../arm-none-eabi/lib/thumb/v7e-m+fp/hard/libstdc++_nano.a(eh_call.o)
                                                  /usr/bin/../lib/gcc/arm-none-eabi/12.3.1/../../../../arm-none-eabi/lib/thumb/v7e-m+fp/hard/libstdc++_nano.a(eh_personality.o)
__cxa_call_unexpected                             /usr/bin/../lib/gcc/arm-none-eabi/12.3.1/../../../../arm-none-eabi/lib/thumb/v7e-m+fp/hard/libstdc++_nano.a(eh_call.o)
                                                  /usr/bin/../lib/gcc/arm-none-eabi/12.3.1/thumb/v7e-m+fp/hard/libgcc.a(unwind-arm.o)
__cxa_end_catch                                   /usr/bin/../lib/gcc/arm-none-eabi/12.3.1/../../../../arm-none-eabi/lib/thumb/v7e-m+fp/hard/libstdc++_nano.a(eh_catch.o)
__cxa_end_cleanup                                 /usr/bin/../lib/gcc/arm-none-eabi/12.3.1/../../../../arm-none-eabi/lib/thumb/v7e-m+fp/hard/libstdc++_nano.a(eh_arm.o)
__cxa_get_exception_ptr                           /usr/bin/../lib/gcc/arm-none-eabi/12.3.1/../../../../arm-none-eabi/lib/thumb/v7e-m+fp/hard/libstdc++_nano.a(eh_catch.o)
__cxa_get_globals                                 /usr/bin/../lib/gcc/arm-none-eabi/12.3.1/../../../../arm-none-eabi/lib/thumb/v7e-m+fp/hard/libstdc++_nano.a(eh_globals.o)
                                                  /usr/bin/../lib/gcc/arm-none-eabi/12.3.1/../../../../arm-none-eabi/lib/thumb/v7e-m+fp/hard/libstdc++_nano.a(eh_catch.o)
                                                  /usr/bin/../lib/gcc/arm-none-eabi/12.3.1/../../../../arm-none-eabi/lib/thumb/v7e-m+fp/hard/libstdc++_nano.a(eh_arm.o)
__cxa_get_globals_fast                            /usr/bin/../lib/gcc/arm-none-eabi/12.3.1/../../../../arm-none-eabi/lib/thumb/v7e-m+fp/hard/libstdc++_nano.a(eh_globals.o)
                                                  /usr/bin/../lib/gcc/arm-none-eabi/12.3.1/../../../../arm-none-eabi/lib/thumb/v7e-m+fp/hard/libstdc++_nano.a(eh_catch.o)
__cxa_pure_virtual                                /usr/bin/../lib/gcc/arm-none-eabi/12.3.1/../../../../arm-none-eabi/lib/thumb/v7e-m+fp/hard/libstdc++_nano.a(eh_exception.o)
                                                  ../../Build/m7/m7/main_m7.o
__cxa_type_match                                  /usr/bin/../lib/gcc/arm-none-eabi/12.3.1/../../../../arm-none-eabi/lib/thumb/v7e-m+fp/hard/libstdc++_nano.a(eh_arm.o)
                                                  /usr/bin/../lib/gcc/arm-none-eabi/12.3.1/thumb/v7e-m+fp/hard/libgcc.a(unwind-arm.o)
                                                  /usr/bin/../lib/gcc/arm-none-eabi/12.3.1/../../../../arm-none-eabi/lib/thumb/v7e-m+fp/hard/libstdc++_nano.a(eh_personality.o)
__cxxabiv1::__class_type_info::__do_catch(std::type_info const*, void**, unsigned int) const /usr/bin/../lib/gcc/arm-none-eabi/12.3.1/../../../../arm-none-eabi/lib/thumb/v7e-m+fp/hard/libstdc++_nano.a(class_type_info.o)
                                                  /usr/bin/../lib/gcc/arm-none-eabi/12.3.1/../../../../arm-none-eabi/lib/thumb/v7e-m+fp/hard/libstdc++_nano.a(si_class_type_info.o)
__cxxabiv1::__class_type_info::__do_dyncast(int, __cxxabiv1::__class_type_info::__sub_kind, __cxxabiv1::__class_type_info const*, void const*, __cxxabiv1::__class_type_info const*, void const*, __cxxabiv1::__class_type_info::__dyncast_result&) const /usr/bin/../lib/gcc/arm-none-eabi/12.3.1/../../../../arm-none-eabi/lib/thumb/v7e-m+fp/hard/libstdc++_nano.a(class_type_info.o)
__cxxabiv1::__class_type_info::__do_find_public_src(int, void const*, __cxxabiv1::__class_type_info const*, void const*) const /usr/bin/../lib/gcc/arm-none-eabi/12.3.1/../../../../arm-none-eabi/lib/thumb/v7e-m+fp/hard/libstdc++_nano.a(class_type_info.o)
__cxxabiv1::__class_type_info::__do_upcast(__cxxabiv1::__class_type_info const*, void const*, __cxxabiv1::__class_type_info::__upcast_result&) const /usr/bin/../lib/gcc/arm-none-eabi/12.3.1/../../../../arm-none-eabi/lib/thumb/v7e-m+fp/hard/libstdc++_nano.a(class_type_info.o)
                                                  /usr/bin/../lib/gcc/arm-none-eabi/12.3.1/../../../../arm-none-eabi/lib/thumb/v7e-m+fp/hard/libstdc++_nano.a(si_class_type_info.o)
__cxxabiv1::__class_type_info::__do_upcast(__cxxabiv1::__class_type_info const*, void**) const /usr/bin/../lib/gcc/arm-none-eabi/12.3.1/../../../../arm-none-eabi/lib/thumb/v7e-m+fp/hard/libstdc++_nano.a(class_type_info.o)
                                                  /usr/bin/../lib/gcc/arm-none-eabi/12.3.1/../../../../arm-none-eabi/lib/thumb/v7e-m+fp/hard/libstdc++_nano.a(si_class_type_info.o)
__cxxabiv1::__class_type_info::~__class_type_info() /usr/bin/../lib/gcc/arm-none-eabi/12.3.1/../../../../arm-none-eabi/lib/thumb/v7e-m+fp/hard/libstdc++_nano.a(class_type_info.o)
__cxxabiv1::__class_type_info::~__class_type_info() /usr/bin/../lib/gcc/arm-none-eabi/12.3.1/../../../../arm-none-eabi/lib/thumb/v7e-m+fp/hard/libstdc++_nano.a(class_type_info.o)
                                                  /usr/bin/../lib/gcc/arm-none-eabi/12.3.1/../../../../arm-none-eabi/lib/thumb/v7e-m+fp/hard/libstdc++_nano.a(si_class_type_info.o)
__cxxabiv1::__class_type_info::~__class_type_info() /usr/bin/../lib/gcc/arm-none-eabi/12.3.1/../../../../arm-none-eabi/lib/thumb/v7e-m+fp/hard/libstdc++_nano.a(class_type_info.o)
__cxxabiv1::__forced_unwind::~__forced_unwind()   /usr/bin/../lib/gcc/arm-none-eabi/12.3.1/../../../../arm-none-eabi/lib/thumb/v7e-m+fp/hard/libstdc++_nano.a(eh_exception.o)
__cxxabiv1::__forced_unwind::~__forced_unwind()   /usr/bin/../lib/gcc/arm-none-eabi/12.3.1/../../../../arm-none-eabi/lib/thumb/v7e-m+fp/hard/libstdc++_nano.a(eh_exception.o)
__cxxabiv1::__forced_unwind::~__forced_unwind()   /usr/bin/../lib/gcc/arm-none-eabi/12.3.1/../../../../arm-none-eabi/lib/thumb/v7e-m+fp/hard/libstdc++_nano.a(eh_exception.o)
__cxxabiv1::__foreign_exception::~__foreign_exception() /usr/bin/../lib/gcc/arm-none-eabi/12.3.1/../../../../arm-none-eabi/lib/thumb/v7e-m+fp/hard/libstdc++_nano.a(eh_exception.o)
__cxxabiv1::__foreign_exception::~__foreign_exception() /usr/bin/../lib/gcc/arm-none-eabi/12.3.1/../../../../arm-none-eabi/lib/thumb/v7e-m+fp/hard/libstdc++_nano.a(eh_exception.o)
__cxxabiv1::__foreign_exception::~__foreign_exception() /usr/bin/../lib/gcc/arm-none-eabi/12.3.1/../../../../arm-none-eabi/lib/thumb/v7e-m+fp/hard/libstdc++_nano.a(eh_exception.o)
__cxxabiv1::__si_class_type_info::__do_dyncast(int, __cxxabiv1::__class_type_info::__sub_kind, __cxxabiv1::__class_type_info const*, void const*, __cxxabiv1::__class_type_info const*, void const*, __cxxabiv1::__class_type_info::__dyncast_result&) const /usr/bin/../lib/gcc/arm-none-eabi/12.3.1/../../../../arm-none-eabi/lib/thumb/v7e-m+fp/hard/libstdc++_nano.a(si_class_type_info.o)
__cxxabiv1::__si_class_type_info::__do_find_public_src(int, void const*, __cxxabiv1::__class_type_info const*, void const*) const /usr/bin/../lib/gcc/arm-none-eabi/12.3.1/../../../../arm-none-eabi/lib/thumb/v7e-m+fp/hard/libstdc++_nano.a(si_class_type_info.o)
__cxxabiv1::__si_class_type_info::__do_upcast(__cxxabiv1::__class_type_info const*, void const*, __cxxabiv1::__class_type_info::__upcast_result&) const /usr/bin/../lib/gcc/arm-none-eabi/12.3.1/../../../../arm-none-eabi/lib/thumb/v7e-m+fp/hard/libstdc++_nano.a(si_class_type_info.o)
__cxxabiv1::__si_class_type_info::~__si_class_type_info() /usr/bin/../lib/gcc/arm-none-eabi/12.3.1/../../../../arm-none-eabi/lib/thumb/v7e-m+fp/hard/libstdc++_nano.a(si_class_type_info.o)
__cxxabiv1::__si_class_type_info::~__si_class_type_info() /usr/bin/../lib/gcc/arm-none-eabi/12.3.1/../../../../arm-none-eabi/lib/thumb/v7e-m+fp/hard/libstdc++_nano.a(si_class_type_info.o)
__cxxabiv1::__si_class_type_info::~__si_class_type_info() /usr/bin/../lib/gcc/arm-none-eabi/12.3.1/../../../../arm-none-eabi/lib/thumb/v7e-m+fp/hard/libstdc++_nano.a(si_class_type_info.o)
__cxxabiv1::__terminate(void (*)())               /usr/bin/../lib/gcc/arm-none-eabi/12.3.1/../../../../arm-none-eabi/lib/thumb/v7e-m+fp/hard/libstdc++_nano.a(eh_terminate.o)
                                                  /usr/bin/../lib/gcc/arm-none-eabi/12.3.1/../../../../arm-none-eabi/lib/thumb/v7e-m+fp/hard/libstdc++_nano.a(eh_call.o)
__cxxabiv1::__terminate_handler                   /usr/bin/../lib/gcc/arm-none-eabi/12.3.1/../../../../arm-none-eabi/lib/thumb/v7e-m+fp/hard/libstdc++_nano.a(eh_term_handler.o)
                                                  /usr/bin/../lib/gcc/arm-none-eabi/12.3.1/../../../../arm-none-eabi/lib/thumb/v7e-m+fp/hard/libstdc++_nano.a(eh_terminate.o)
__cxxabiv1::__unexpected(void (*)())              /usr/bin/../lib/gcc/arm-none-eabi/12.3.1/../../../../arm-none-eabi/lib/thumb/v7e-m+fp/hard/libstdc++_nano.a(eh_terminate.o)
                                                  /usr/bin/../lib/gcc/arm-none-eabi/12.3.1/../../../../arm-none-eabi/lib/thumb/v7e-m+fp/hard/libstdc++_nano.a(eh_call.o)
__cxxabiv1::__unexpected_handler                  /usr/bin/../lib/gcc/arm-none-eabi/12.3.1/../../../../arm-none-eabi/lib/thumb/v7e-m+fp/hard/libstdc++_nano.a(eh_unex_handler.o)
                                                  /usr/bin/../lib/gcc/arm-none-eabi/12.3.1/../../../../arm-none-eabi/lib/thumb/v7e-m+fp/hard/libstdc++_nano.a(eh_terminate.o)
__deregister_frame_info                           /usr/bin/../lib/gcc/arm-none-eabi/12.3.1/thumb/v7e-m+fp/hard/crtbegin.o
__dso_handle                                      /usr/bin/../lib/gcc/arm-none-eabi/12.3.1/thumb/v7e-m+fp/hard/crtbegin.o
                                                  /usr/bin/../lib/gcc/arm-none-eabi/12.3.1/../../../../arm-none-eabi/lib/thumb/v7e-m+fp/hard/libstdc++_nano.a(eh_globals.o)
__env                                             ../../Build/m7/Common/syscalls.o
__errno                                           /usr/bin/../lib/gcc/arm-none-eabi/12.3.1/../../../../arm-none-eabi/lib/thumb/v7e-m+fp/hard/libc_nano.a(libc_a-errno.o)
                                                  ../../Build/m7/Common/syscalls.o
                                                  ../../Build/m7/Common/sysmem.o
__exidx_end                                       /usr/bin/../lib/gcc/arm-none-eabi/12.3.1/thumb/v7e-m+fp/hard/libgcc.a(unwind-arm.o)
__exidx_start                                     /usr/bin/../lib/gcc/arm-none-eabi/12.3.1/thumb/v7e-m+fp/hard/libgcc.a(unwind-arm.o)
__fp_lock_all                                     /usr/bin/../lib/gcc/arm-none-eabi/12.3.1/../../../../arm-none-eabi/lib/thumb/v7e-m+fp/hard/libc_nano.a(libc_a-findfp.o)
__fp_unlock_all                                   /usr/bin/../lib/gcc/arm-none-eabi/12.3.1/../../../../arm-none-eabi/lib/thumb/v7e-m+fp/hard/libc_nano.a(libc_a-findfp.o)
__gnu_Unwind_Backtrace                            /usr/bin/../lib/gcc/arm-none-eabi/12.3.1/thumb/v7e-m+fp/hard/libgcc.a(unwind-arm.o)
                                                  /usr/bin/../lib/gcc/arm-none-eabi/12.3.1/thumb/v7e-m+fp/hard/libgcc.a(libunwind.o)
__gnu_Unwind_Find_exidx                           /usr/bin/../lib/gcc/arm-none-eabi/12.3.1/thumb/v7e-m+fp/hard/libgcc.a(unwind-arm.o)
__gnu_Unwind_ForcedUnwind                         /usr/bin/../lib/gcc/arm-none-eabi/12.3.1/thumb/v7e-m+fp/hard/libgcc.a(unwind-arm.o)
                                                  /usr/bin/../lib/gcc/arm-none-eabi/12.3.1/thumb/v7e-m+fp/hard/libgcc.a(libunwind.o)
__gnu_Unwind_RaiseException                       /usr/bin/../lib/gcc/arm-none-eabi/12.3.1/thumb/v7e-m+fp/hard/libgcc.a(unwind-arm.o)
                                                  /usr/bin/../lib/gcc/arm-none-eabi/12.3.1/thumb/v7e-m+fp/hard/libgcc.a(libunwind.o)
__gnu_Unwind_Restore_VFP                          /usr/bin/../lib/gcc/arm-none-eabi/12.3.1/thumb/v7e-m+fp/hard/libgcc.a(libunwind.o)
                                                  /usr/bin/../lib/gcc/arm-none-eabi/12.3.1/thumb/v7e-m+fp/hard/libgcc.a(unwind-arm.o)
__gnu_Unwind_Restore_VFP_D                        /usr/bin/../lib/gcc/arm-none-eabi/12.3.1/thumb/v7e-m+fp/hard/libgcc.a(libunwind.o)
                                                  /usr/bin/../lib/gcc/arm-none-eabi/12.3.1/thumb/v7e-m+fp/hard/libgcc.a(unwind-arm.o)
__gnu_Unwind_Restore_VFP_D_16_to_31               /usr/bin/../lib/gcc/arm-none-eabi/12.3.1/thumb/v7e-m+fp/hard/libgcc.a(libunwind.o)
                                                  /usr/bin/../lib/gcc/arm-none-eabi/12.3.1/thumb/v7e-m+fp/hard/libgcc.a(unwind-arm.o)
__gnu_Unwind_Restore_WMMXC                        /usr/bin/../lib/gcc/arm-none-eabi/12.3.1/thumb/v7e-m+fp/hard/libgcc.a(libunwind.o)
                                                  /usr/bin/../lib/gcc/arm-none-eabi/12.3.1/thumb/v7e-m+fp/hard/libgcc.a(unwind-arm.o)
__gnu_Unwind_Restore_WMMXD                        /usr/bin/../lib/gcc/arm-none-eabi/12.3.1/thumb/v7e-m+fp/hard/libgcc.a(libunwind.o)
                                                  /usr/bin/../lib/gcc/arm-none-eabi/12.3.1/thumb/v7e-m+fp/hard/libgcc.a(unwind-arm.o)
__gnu_Unwind_Resume                               /usr/bin/../lib/gcc/arm-none-eabi/12.3.1/thumb/v7e-m+fp/hard/libgcc.a(unwind-arm.o)
                                                  /usr/bin/../lib/gcc/arm-none-eabi/12.3.1/thumb/v7e-m+fp/hard/libgcc.a(libunwind.o)
__gnu_Unwind_Resume_or_Rethrow                    /usr/bin/../lib/gcc/arm-none-eabi/12.3.1/thumb/v7e-m+fp/hard/libgcc.a(unwind-arm.o)
                                                  /usr/bin/../lib/gcc/arm-none-eabi/12.3.1/thumb/v7e-m+fp/hard/libgcc.a(libunwind.o)
__gnu_Unwind_Save_VFP                             /usr/bin/../lib/gcc/arm-none-eabi/12.3.1/thumb/v7e-m+fp/hard/libgcc.a(libunwind.o)
                                                  /usr/bin/../lib/gcc/arm-none-eabi/12.3.1/thumb/v7e-m+fp/hard/libgcc.a(unwind-arm.o)
__gnu_Unwind_Save_VFP_D                           /usr/bin/../lib/gcc/arm-none-eabi/12.3.1/thumb/v7e-m+fp/hard/libgcc.a(libunwind.o)
                                                  /usr/bin/../lib/gcc/arm-none-eabi/12.3.1/thumb/v7e-m+fp/hard/libgcc.a(unwind-arm.o)
__gnu_Unwind_Save_VFP_D_16_to_31                  /usr/bin/../lib/gcc/arm-none-eabi/12.3.1/thumb/v7e-m+fp/hard/libgcc.a(libunwind.o)
                                                  /usr/bin/../lib/gcc/arm-none-eabi/12.3.1/thumb/v7e-m+fp/hard/libgcc.a(unwind-arm.o)
__gnu_Unwind_Save_WMMXC                           /usr/bin/../lib/gcc/arm-none-eabi/12.3.1/thumb/v7e-m+fp/hard/libgcc.a(libunwind.o)
                                                  /usr/bin/../lib/gcc/arm-none-eabi/12.3.1/thumb/v7e-m+fp/hard/libgcc.a(unwind-arm.o)
__gnu_Unwind_Save_WMMXD                           /usr/bin/../lib/gcc/arm-none-eabi/12.3.1/thumb/v7e-m+fp/hard/libgcc.a(libunwind.o)
                                                  /usr/bin/../lib/gcc/arm-none-eabi/12.3.1/thumb/v7e-m+fp/hard/libgcc.a(unwind-arm.o)
__gnu_end_cleanup                                 /usr/bin/../lib/gcc/arm-none-eabi/12.3.1/../../../../arm-none-eabi/lib/thumb/v7e-m+fp/hard/libstdc++_nano.a(eh_arm.o)
__gnu_unwind_execute                              /usr/bin/../lib/gcc/arm-none-eabi/12.3.1/thumb/v7e-m+fp/hard/libgcc.a(pr-support.o)
                                                  /usr/bin/../lib/gcc/arm-none-eabi/12.3.1/thumb/v7e-m+fp/hard/libgcc.a(unwind-arm.o)
__gnu_unwind_frame                                /usr/bin/../lib/gcc/arm-none-eabi/12.3.1/thumb/v7e-m+fp/hard/libgcc.a(pr-support.o)
                                                  /usr/bin/../lib/gcc/arm-none-eabi/12.3.1/../../../../arm-none-eabi/lib/thumb/v7e-m+fp/hard/libstdc++_nano.a(eh_personality.o)
__gxx_personality_v0                              /usr/bin/../lib/gcc/arm-none-eabi/12.3.1/../../../../arm-none-eabi/lib/thumb/v7e-m+fp/hard/libstdc++_nano.a(eh_personality.o)
                                                  ../../Build/m7/m7/main_m7.o
__init_array_end                                  /usr/bin/../lib/gcc/arm-none-eabi/12.3.1/../../../../arm-none-eabi/lib/thumb/v7e-m+fp/hard/libc_nano.a(libc_a-init.o)
__init_array_start                                /usr/bin/../lib/gcc/arm-none-eabi/12.3.1/../../../../arm-none-eabi/lib/thumb/v7e-m+fp/hard/libc_nano.a(libc_a-init.o)
__io_getchar                                      ../../Build/m7/Common/syscalls.o
__io_putchar                                      ../../Build/m7/Common/syscalls.o
__libc_fini_array                                 /usr/bin/../lib/gcc/arm-none-eabi/12.3.1/../../../../arm-none-eabi/lib/thumb/v7e-m+fp/hard/crt0.o
__libc_init_array                                 /usr/bin/../lib/gcc/arm-none-eabi/12.3.1/../../../../arm-none-eabi/lib/thumb/v7e-m+fp/hard/libc_nano.a(libc_a-init.o)
                                                  ../../Build/m7/Startup/startup_stm32h755xx.o
                                                  /usr/bin/../lib/gcc/arm-none-eabi/12.3.1/../../../../arm-none-eabi/lib/thumb/v7e-m+fp/hard/crt0.o
__lock___arc4random_mutex                         /usr/bin/../lib/gcc/arm-none-eabi/12.3.1/../../../../arm-none-eabi/lib/thumb/v7e-m+fp/hard/libc_nano.a(libc_a-lock.o)
__lock___at_quick_exit_mutex                      /usr/bin/../lib/gcc/arm-none-eabi/12.3.1/../../../../arm-none-eabi/lib/thumb/v7e-m+fp/hard/libc_nano.a(libc_a-lock.o)
__lock___atexit_recursive_mutex                   /usr/bin/../lib/gcc/arm-none-eabi/12.3.1/../../../../arm-none-eabi/lib/thumb/v7e-m+fp/hard/libc_nano.a(libc_a-lock.o)
__lock___dd_hash_mutex                            /usr/bin/../lib/gcc/arm-none-eabi/12.3.1/../../../../arm-none-eabi/lib/thumb/v7e-m+fp/hard/libc_nano.a(libc_a-lock.o)
__lock___env_recursive_mutex                      /usr/bin/../lib/gcc/arm-none-eabi/12.3.1/../../../../arm-none-eabi/lib/thumb/v7e-m+fp/hard/libc_nano.a(libc_a-lock.o)
__lock___malloc_recursive_mutex                   /usr/bin/../lib/gcc/arm-none-eabi/12.3.1/../../../../arm-none-eabi/lib/thumb/v7e-m+fp/hard/libc_nano.a(libc_a-lock.o)
                                                  /usr/bin/../lib/gcc/arm-none-eabi/12.3.1/../../../../arm-none-eabi/lib/thumb/v7e-m+fp/hard/libc_nano.a(libc_a-mlock.o)
__lock___sfp_recursive_mutex                      /usr/bin/../lib/gcc/arm-none-eabi/12.3.1/../../../../arm-none-eabi/lib/thumb/v7e-m+fp/hard/libc_nano.a(libc_a-lock.o)
                                                  /usr/bin/../lib/gcc/arm-none-eabi/12.3.1/../../../../arm-none-eabi/lib/thumb/v7e-m+fp/hard/libc_nano.a(libc_a-findfp.o)
__lock___tz_mutex                                 /usr/bin/../lib/gcc/arm-none-eabi/12.3.1/../../../../arm-none-eabi/lib/thumb/v7e-m+fp/hard/libc_nano.a(libc_a-lock.o)
__malloc_free_list                                /usr/bin/../lib/gcc/arm-none-eabi/12.3.1/../../../../arm-none-eabi/lib/thumb/v7e-m+fp/hard/libc_nano.a(libc_a-mallocr.o)
                                                  /usr/bin/../lib/gcc/arm-none-eabi/12.3.1/../../../../arm-none-eabi/lib/thumb/v7e-m+fp/hard/libc_nano.a(libc_a-freer.o)
__malloc_lock                                     /usr/bin/../lib/gcc/arm-none-eabi/12.3.1/../../../../arm-none-eabi/lib/thumb/v7e-m+fp/hard/libc_nano.a(libc_a-mlock.o)
                                                  /usr/bin/../lib/gcc/arm-none-eabi/12.3.1/../../../../arm-none-eabi/lib/thumb/v7e-m+fp/hard/libc_nano.a(libc_a-freer.o)
                                                  /usr/bin/../lib/gcc/arm-none-eabi/12.3.1/../../../../arm-none-eabi/lib/thumb/v7e-m+fp/hard/libc_nano.a(libc_a-mallocr.o)
__malloc_sbrk_start                               /usr/bin/../lib/gcc/arm-none-eabi/12.3.1/../../../../arm-none-eabi/lib/thumb/v7e-m+fp/hard/libc_nano.a(libc_a-mallocr.o)
__malloc_unlock                                   /usr/bin/../lib/gcc/arm-none-eabi/12.3.1/../../../../arm-none-eabi/lib/thumb/v7e-m+fp/hard/libc_nano.a(libc_a-mlock.o)
                                                  /usr/bin/../lib/gcc/arm-none-eabi/12.3.1/../../../../arm-none-eabi/lib/thumb/v7e-m+fp/hard/libc_nano.a(libc_a-freer.o)
                                                  /usr/bin/../lib/gcc/arm-none-eabi/12.3.1/../../../../arm-none-eabi/lib/thumb/v7e-m+fp/hard/libc_nano.a(libc_a-mallocr.o)
__on_exit_args                                    /usr/bin/../lib/gcc/arm-none-eabi/12.3.1/../../../../arm-none-eabi/lib/thumb/v7e-m+fp/hard/libc_nano.a(libc_a-on_exit_args.o)
                                                  /usr/bin/../lib/gcc/arm-none-eabi/12.3.1/../../../../arm-none-eabi/lib/thumb/v7e-m+fp/hard/libc_nano.a(libc_a-cxa_atexit.o)
__preinit_array_end                               /usr/bin/../lib/gcc/arm-none-eabi/12.3.1/../../../../arm-none-eabi/lib/thumb/v7e-m+fp/hard/libc_nano.a(libc_a-init.o)
__preinit_array_start                             /usr/bin/../lib/gcc/arm-none-eabi/12.3.1/../../../../arm-none-eabi/lib/thumb/v7e-m+fp/hard/libc_nano.a(libc_a-init.o)
__register_exitproc                               /usr/bin/../lib/gcc/arm-none-eabi/12.3.1/../../../../arm-none-eabi/lib/thumb/v7e-m+fp/hard/libc_nano.a(libc_a-cxa_atexit.o)
__register_frame_info                             /usr/bin/../lib/gcc/arm-none-eabi/12.3.1/thumb/v7e-m+fp/hard/crtbegin.o
__restore_core_regs                               /usr/bin/../lib/gcc/arm-none-eabi/12.3.1/thumb/v7e-m+fp/hard/libgcc.a(libunwind.o)
__retarget_lock_acquire                           /usr/bin/../lib/gcc/arm-none-eabi/12.3.1/../../../../arm-none-eabi/lib/thumb/v7e-m+fp/hard/libc_nano.a(libc_a-lock.o)
__retarget_lock_acquire_recursive                 /usr/bin/../lib/gcc/arm-none-eabi/12.3.1/../../../../arm-none-eabi/lib/thumb/v7e-m+fp/hard/libc_nano.a(libc_a-lock.o)
                                                  /usr/bin/../lib/gcc/arm-none-eabi/12.3.1/../../../../arm-none-eabi/lib/thumb/v7e-m+fp/hard/libc_nano.a(libc_a-fflush.o)
                                                  /usr/bin/../lib/gcc/arm-none-eabi/12.3.1/../../../../arm-none-eabi/lib/thumb/v7e-m+fp/hard/libc_nano.a(libc_a-mlock.o)
                                                  /usr/bin/../lib/gcc/arm-none-eabi/12.3.1/../../../../arm-none-eabi/lib/thumb/v7e-m+fp/hard/libc_nano.a(libc_a-findfp.o)
__retarget_lock_close                             /usr/bin/../lib/gcc/arm-none-eabi/12.3.1/../../../../arm-none-eabi/lib/thumb/v7e-m+fp/hard/libc_nano.a(libc_a-lock.o)
__retarget_lock_close_recursive                   /usr/bin/../lib/gcc/arm-none-eabi/12.3.1/../../../../arm-none-eabi/lib/thumb/v7e-m+fp/hard/libc_nano.a(libc_a-lock.o)
__retarget_lock_init                              /usr/bin/../lib/gcc/arm-none-eabi/12.3.1/../../../../arm-none-eabi/lib/thumb/v7e-m+fp/hard/libc_nano.a(libc_a-lock.o)
__retarget_lock_init_recursive                    /usr/bin/../lib/gcc/arm-none-eabi/12.3.1/../../../../arm-none-eabi/lib/thumb/v7e-m+fp/hard/libc_nano.a(libc_a-lock.o)
                                                  /usr/bin/../lib/gcc/arm-none-eabi/12.3.1/../../../../arm-none-eabi/lib/thumb/v7e-m+fp/hard/libc_nano.a(libc_a-findfp.o)
__retarget_lock_release                           /usr/bin/../lib/gcc/arm-none-eabi/12.3.1/../../../../arm-none-eabi/lib/thumb/v7e-m+fp/hard/libc_nano.a(libc_a-lock.o)
__retarget_lock_release_recursive                 /usr/bin/../lib/gcc/arm-none-eabi/12.3.1/../../../../arm-none-eabi/lib/thumb/v7e-m+fp/hard/libc_nano.a(libc_a-lock.o)
                                                  /usr/bin/../lib/gcc/arm-none-eabi/12.3.1/../../../../arm-none-eabi/lib/thumb/v7e-m+fp/hard/libc_nano.a(libc_a-fflush.o)
                                                  /usr/bin/../lib/gcc/arm-none-eabi/12.3.1/../../../../arm-none-eabi/lib/thumb/v7e-m+fp/hard/libc_nano.a(libc_a-mlock.o)
                                                  /usr/bin/../lib/gcc/arm-none-eabi/12.3.1/../../../../arm-none-eabi/lib/thumb/v7e-m+fp/hard/libc_nano.a(libc_a-findfp.o)
__retarget_lock_try_acquire                       /usr/bin/../lib/gcc/arm-none-eabi/12.3.1/../../../../arm-none-eabi/lib/thumb/v7e-m+fp/hard/libc_nano.a(libc_a-lock.o)
__retarget_lock_try_acquire_recursive             /usr/bin/../lib/gcc/arm-none-eabi/12.3.1/../../../../arm-none-eabi/lib/thumb/v7e-m+fp/hard/libc_nano.a(libc_a-lock.o)
__sclose                                          /usr/bin/../lib/gcc/arm-none-eabi/12.3.1/../../../../arm-none-eabi/lib/thumb/v7e-m+fp/hard/libc_nano.a(libc_a-stdio.o)
                                                  /usr/bin/../lib/gcc/arm-none-eabi/12.3.1/../../../../arm-none-eabi/lib/thumb/v7e-m+fp/hard/libc_nano.a(libc_a-findfp.o)
__seofread                                        /usr/bin/../lib/gcc/arm-none-eabi/12.3.1/../../../../arm-none-eabi/lib/thumb/v7e-m+fp/hard/libc_nano.a(libc_a-stdio.o)
__sf                                              /usr/bin/../lib/gcc/arm-none-eabi/12.3.1/../../../../arm-none-eabi/lib/thumb/v7e-m+fp/hard/libc_nano.a(libc_a-findfp.o)
                                                  /usr/bin/../lib/gcc/arm-none-eabi/12.3.1/../../../../arm-none-eabi/lib/thumb/v7e-m+fp/hard/libc_nano.a(libc_a-impure.o)
__sflush_r                                        /usr/bin/../lib/gcc/arm-none-eabi/12.3.1/../../../../arm-none-eabi/lib/thumb/v7e-m+fp/hard/libc_nano.a(libc_a-fflush.o)
__sfp                                             /usr/bin/../lib/gcc/arm-none-eabi/12.3.1/../../../../arm-none-eabi/lib/thumb/v7e-m+fp/hard/libc_nano.a(libc_a-findfp.o)
__sfp_lock_acquire                                /usr/bin/../lib/gcc/arm-none-eabi/12.3.1/../../../../arm-none-eabi/lib/thumb/v7e-m+fp/hard/libc_nano.a(libc_a-findfp.o)
__sfp_lock_release                                /usr/bin/../lib/gcc/arm-none-eabi/12.3.1/../../../../arm-none-eabi/lib/thumb/v7e-m+fp/hard/libc_nano.a(libc_a-findfp.o)
__sglue                                           /usr/bin/../lib/gcc/arm-none-eabi/12.3.1/../../../../arm-none-eabi/lib/thumb/v7e-m+fp/hard/libc_nano.a(libc_a-findfp.o)
                                                  /usr/bin/../lib/gcc/arm-none-eabi/12.3.1/../../../../arm-none-eabi/lib/thumb/v7e-m+fp/hard/libc_nano.a(libc_a-fflush.o)
__sigtramp                                        /usr/bin/../lib/gcc/arm-none-eabi/12.3.1/../../../../arm-none-eabi/lib/thumb/v7e-m+fp/hard/libc_nano.a(libc_a-signal.o)
__sigtramp_r                                      /usr/bin/../lib/gcc/arm-none-eabi/12.3.1/../../../../arm-none-eabi/lib/thumb/v7e-m+fp/hard/libc_nano.a(libc_a-signal.o)
__sinit                                           /usr/bin/../lib/gcc/arm-none-eabi/12.3.1/../../../../arm-none-eabi/lib/thumb/v7e-m+fp/hard/libc_nano.a(libc_a-findfp.o)
                                                  /usr/bin/../lib/gcc/arm-none-eabi/12.3.1/../../../../arm-none-eabi/lib/thumb/v7e-m+fp/hard/libc_nano.a(libc_a-fflush.o)
__sread                                           /usr/bin/../lib/gcc/arm-none-eabi/12.3.1/../../../../arm-none-eabi/lib/thumb/v7e-m+fp/hard/libc_nano.a(libc_a-stdio.o)
                                                  /usr/bin/../lib/gcc/arm-none-eabi/12.3.1/../../../../arm-none-eabi/lib/thumb/v7e-m+fp/hard/libc_nano.a(libc_a-findfp.o)
__sseek                                           /usr/bin/../lib/gcc/arm-none-eabi/12.3.1/../../../../arm-none-eabi/lib/thumb/v7e-m+fp/hard/libc_nano.a(libc_a-stdio.o)
                                                  /usr/bin/../lib/gcc/arm-none-eabi/12.3.1/../../../../arm-none-eabi/lib/thumb/v7e-m+fp/hard/libc_nano.a(libc_a-findfp.o)
__stack                                           /usr/bin/../lib/gcc/arm-none-eabi/12.3.1/../../../../arm-none-eabi/lib/thumb/v7e-m+fp/hard/crt0.o
__stdio_exit_handler                              /usr/bin/../lib/gcc/arm-none-eabi/12.3.1/../../../../arm-none-eabi/lib/thumb/v7e-m+fp/hard/libc_nano.a(libc_a-findfp.o)
                                                  /usr/bin/../lib/gcc/arm-none-eabi/12.3.1/../../../../arm-none-eabi/lib/thumb/v7e-m+fp/hard/libc_nano.a(libc_a-exit.o)
__swrite                                          /usr/bin/../lib/gcc/arm-none-eabi/12.3.1/../../../../arm-none-eabi/lib/thumb/v7e-m+fp/hard/libc_nano.a(libc_a-stdio.o)
                                                  /usr/bin/../lib/gcc/arm-none-eabi/12.3.1/../../../../arm-none-eabi/lib/thumb/v7e-m+fp/hard/libc_nano.a(libc_a-findfp.o)
_close                                            ../../Build/m7/Common/syscalls.o
                                                  /usr/bin/../lib/gcc/arm-none-eabi/12.3.1/../../../../arm-none-eabi/lib/thumb/v7e-m+fp/hard/libc_nano.a(libc_a-closer.o)
_close_r                                          /usr/bin/../lib/gcc/arm-none-eabi/12.3.1/../../../../arm-none-eabi/lib/thumb/v7e-m+fp/hard/libc_nano.a(libc_a-closer.o)
                                                  /usr/bin/../lib/gcc/arm-none-eabi/12.3.1/../../../../arm-none-eabi/lib/thumb/v7e-m+fp/hard/libc_nano.a(libc_a-stdio.o)
_ebss                                             ../../Build/m7/Startup/startup_stm32h755xx.o
_edata                                            ../../Build/m7/Startup/startup_stm32h755xx.o
_end                                              ../../Build/m7/Common/sysmem.o
_estack                                           ../../Build/m7/Startup/startup_stm32h755xx.o
                                                  ../../Build/m7/Common/sysmem.o
_execve                                           ../../Build/m7/Common/syscalls.o
_exit                                             ../../Build/m7/Common/syscalls.o
                                                  /usr/bin/../lib/gcc/arm-none-eabi/12.3.1/../../../../arm-none-eabi/lib/thumb/v7e-m+fp/hard/libc_nano.a(libc_a-abort.o)
                                                  /usr/bin/../lib/gcc/arm-none-eabi/12.3.1/../../../../arm-none-eabi/lib/thumb/v7e-m+fp/hard/libc_nano.a(libc_a-exit.o)
_fflush_r                                         /usr/bin/../lib/gcc/arm-none-eabi/12.3.1/../../../../arm-none-eabi/lib/thumb/v7e-m+fp/hard/libc_nano.a(libc_a-fflush.o)
                                                  /usr/bin/../lib/gcc/arm-none-eabi/12.3.1/../../../../arm-none-eabi/lib/thumb/v7e-m+fp/hard/libc_nano.a(libc_a-findfp.o)
_fini                                             /usr/bin/../lib/gcc/arm-none-eabi/12.3.1/thumb/v7e-m+fp/hard/crti.o
_fork                                             ../../Build/m7/Common/syscalls.o
_free_r                                           /usr/bin/../lib/gcc/arm-none-eabi/12.3.1/../../../../arm-none-eabi/lib/thumb/v7e-m+fp/hard/libc_nano.a(libc_a-freer.o)
                                                  /usr/bin/../lib/gcc/arm-none-eabi/12.3.1/../../../../arm-none-eabi/lib/thumb/v7e-m+fp/hard/libc_nano.a(libc_a-fflush.o)
                                                  /usr/bin/../lib/gcc/arm-none-eabi/12.3.1/../../../../arm-none-eabi/lib/thumb/v7e-m+fp/hard/libc_nano.a(libc_a-reent.o)
                                                  /usr/bin/../lib/gcc/arm-none-eabi/12.3.1/../../../../arm-none-eabi/lib/thumb/v7e-m+fp/hard/libc_nano.a(libc_a-malloc.o)
_fstat                                            ../../Build/m7/Common/syscalls.o
_fwalk_sglue                                      /usr/bin/../lib/gcc/arm-none-eabi/12.3.1/../../../../arm-none-eabi/lib/thumb/v7e-m+fp/hard/libc_nano.a(libc_a-fwalk.o)
                                                  /usr/bin/../lib/gcc/arm-none-eabi/12.3.1/../../../../arm-none-eabi/lib/thumb/v7e-m+fp/hard/libc_nano.a(libc_a-fflush.o)
                                                  /usr/bin/../lib/gcc/arm-none-eabi/12.3.1/../../../../arm-none-eabi/lib/thumb/v7e-m+fp/hard/libc_nano.a(libc_a-findfp.o)
_getpid                                           ../../Build/m7/Common/syscalls.o
                                                  /usr/bin/../lib/gcc/arm-none-eabi/12.3.1/../../../../arm-none-eabi/lib/thumb/v7e-m+fp/hard/libc_nano.a(libc_a-signalr.o)
_getpid_r                                         /usr/bin/../lib/gcc/arm-none-eabi/12.3.1/../../../../arm-none-eabi/lib/thumb/v7e-m+fp/hard/libc_nano.a(libc_a-signalr.o)
                                                  /usr/bin/../lib/gcc/arm-none-eabi/12.3.1/../../../../arm-none-eabi/lib/thumb/v7e-m+fp/hard/libc_nano.a(libc_a-signal.o)
_impure_data                                      /usr/bin/../lib/gcc/arm-none-eabi/12.3.1/../../../../arm-none-eabi/lib/thumb/v7e-m+fp/hard/libc_nano.a(libc_a-impure.o)
                                                  /usr/bin/../lib/gcc/arm-none-eabi/12.3.1/../../../../arm-none-eabi/lib/thumb/v7e-m+fp/hard/libc_nano.a(libc_a-fflush.o)
                                                  /usr/bin/../lib/gcc/arm-none-eabi/12.3.1/../../../../arm-none-eabi/lib/thumb/v7e-m+fp/hard/libc_nano.a(libc_a-findfp.o)
_impure_ptr                                       /usr/bin/../lib/gcc/arm-none-eabi/12.3.1/../../../../arm-none-eabi/lib/thumb/v7e-m+fp/hard/libc_nano.a(libc_a-impure.o)
                                                  /usr/bin/../lib/gcc/arm-none-eabi/12.3.1/../../../../arm-none-eabi/lib/thumb/v7e-m+fp/hard/libc_nano.a(libc_a-signal.o)
                                                  /usr/bin/../lib/gcc/arm-none-eabi/12.3.1/../../../../arm-none-eabi/lib/thumb/v7e-m+fp/hard/libc_nano.a(libc_a-fflush.o)
                                                  /usr/bin/../lib/gcc/arm-none-eabi/12.3.1/../../../../arm-none-eabi/lib/thumb/v7e-m+fp/hard/libc_nano.a(libc_a-reent.o)
                                                  /usr/bin/../lib/gcc/arm-none-eabi/12.3.1/../../../../arm-none-eabi/lib/thumb/v7e-m+fp/hard/libc_nano.a(libc_a-errno.o)
                                                  /usr/bin/../lib/gcc/arm-none-eabi/12.3.1/../../../../arm-none-eabi/lib/thumb/v7e-m+fp/hard/libc_nano.a(libc_a-malloc.o)
_init                                             /usr/bin/../lib/gcc/arm-none-eabi/12.3.1/thumb/v7e-m+fp/hard/crti.o
                                                  /usr/bin/../lib/gcc/arm-none-eabi/12.3.1/../../../../arm-none-eabi/lib/thumb/v7e-m+fp/hard/libc_nano.a(libc_a-init.o)
_init_signal                                      /usr/bin/../lib/gcc/arm-none-eabi/12.3.1/../../../../arm-none-eabi/lib/thumb/v7e-m+fp/hard/libc_nano.a(libc_a-signal.o)
_init_signal_r                                    /usr/bin/../lib/gcc/arm-none-eabi/12.3.1/../../../../arm-none-eabi/lib/thumb/v7e-m+fp/hard/libc_nano.a(libc_a-signal.o)
_isatty                                           ../../Build/m7/Common/syscalls.o
_kill                                             ../../Build/m7/Common/syscalls.o
                                                  /usr/bin/../lib/gcc/arm-none-eabi/12.3.1/../../../../arm-none-eabi/lib/thumb/v7e-m+fp/hard/libc_nano.a(libc_a-signalr.o)
_kill_r                                           /usr/bin/../lib/gcc/arm-none-eabi/12.3.1/../../../../arm-none-eabi/lib/thumb/v7e-m+fp/hard/libc_nano.a(libc_a-signalr.o)
                                                  /usr/bin/../lib/gcc/arm-none-eabi/12.3.1/../../../../arm-none-eabi/lib/thumb/v7e-m+fp/hard/libc_nano.a(libc_a-signal.o)
_link                                             ../../Build/m7/Common/syscalls.o
_lseek                                            ../../Build/m7/Common/syscalls.o
                                                  /usr/bin/../lib/gcc/arm-none-eabi/12.3.1/../../../../arm-none-eabi/lib/thumb/v7e-m+fp/hard/libc_nano.a(libc_a-lseekr.o)
_lseek_r                                          /usr/bin/../lib/gcc/arm-none-eabi/12.3.1/../../../../arm-none-eabi/lib/thumb/v7e-m+fp/hard/libc_nano.a(libc_a-lseekr.o)
                                                  /usr/bin/../lib/gcc/arm-none-eabi/12.3.1/../../../../arm-none-eabi/lib/thumb/v7e-m+fp/hard/libc_nano.a(libc_a-stdio.o)
_mainCRTStartup                                   /usr/bin/../lib/gcc/arm-none-eabi/12.3.1/../../../../arm-none-eabi/lib/thumb/v7e-m+fp/hard/crt0.o
_malloc_r                                         /usr/bin/../lib/gcc/arm-none-eabi/12.3.1/../../../../arm-none-eabi/lib/thumb/v7e-m+fp/hard/libc_nano.a(libc_a-mallocr.o)
                                                  /usr/bin/../lib/gcc/arm-none-eabi/12.3.1/../../../../arm-none-eabi/lib/thumb/v7e-m+fp/hard/libc_nano.a(libc_a-signal.o)
                                                  /usr/bin/../lib/gcc/arm-none-eabi/12.3.1/../../../../arm-none-eabi/lib/thumb/v7e-m+fp/hard/libc_nano.a(libc_a-findfp.o)
                                                  /usr/bin/../lib/gcc/arm-none-eabi/12.3.1/../../../../arm-none-eabi/lib/thumb/v7e-m+fp/hard/libc_nano.a(libc_a-malloc.o)
_open                                             ../../Build/m7/Common/syscalls.o
_raise_r                                          /usr/bin/../lib/gcc/arm-none-eabi/12.3.1/../../../../arm-none-eabi/lib/thumb/v7e-m+fp/hard/libc_nano.a(libc_a-signal.o)
_read                                             ../../Build/m7/Common/syscalls.o
                                                  /usr/bin/../lib/gcc/arm-none-eabi/12.3.1/../../../../arm-none-eabi/lib/thumb/v7e-m+fp/hard/libc_nano.a(libc_a-readr.o)
_read_r                                           /usr/bin/../lib/gcc/arm-none-eabi/12.3.1/../../../../arm-none-eabi/lib/thumb/v7e-m+fp/hard/libc_nano.a(libc_a-readr.o)
                                                  /usr/bin/../lib/gcc/arm-none-eabi/12.3.1/../../../../arm-none-eabi/lib/thumb/v7e-m+fp/hard/libc_nano.a(libc_a-stdio.o)
_reclaim_reent                                    /usr/bin/../lib/gcc/arm-none-eabi/12.3.1/../../../../arm-none-eabi/lib/thumb/v7e-m+fp/hard/libc_nano.a(libc_a-reent.o)
_sbrk                                             ../../Build/m7/Common/sysmem.o
                                                  /usr/bin/../lib/gcc/arm-none-eabi/12.3.1/../../../../arm-none-eabi/lib/thumb/v7e-m+fp/hard/libc_nano.a(libc_a-sbrkr.o)
_sbrk_r                                           /usr/bin/../lib/gcc/arm-none-eabi/12.3.1/../../../../arm-none-eabi/lib/thumb/v7e-m+fp/hard/libc_nano.a(libc_a-sbrkr.o)
                                                  /usr/bin/../lib/gcc/arm-none-eabi/12.3.1/../../../../arm-none-eabi/lib/thumb/v7e-m+fp/hard/libc_nano.a(libc_a-mallocr.o)
_sbss                                             ../../Build/m7/Startup/startup_stm32h755xx.o
_sdata                                            ../../Build/m7/Startup/startup_stm32h755xx.o
_sidata                                           ../../Build/m7/Startup/startup_stm32h755xx.o
_signal_r                                         /usr/bin/../lib/gcc/arm-none-eabi/12.3.1/../../../../arm-none-eabi/lib/thumb/v7e-m+fp/hard/libc_nano.a(libc_a-signal.o)
_stack_init                                       /usr/bin/../lib/gcc/arm-none-eabi/12.3.1/../../../../arm-none-eabi/lib/thumb/v7e-m+fp/hard/crt0.o
_start                                            /usr/bin/../lib/gcc/arm-none-eabi/12.3.1/../../../../arm-none-eabi/lib/thumb/v7e-m+fp/hard/crt0.o
_stat                                             ../../Build/m7/Common/syscalls.o
_times                                            ../../Build/m7/Common/syscalls.o
_unlink                                           ../../Build/m7/Common/syscalls.o
_wait                                             ../../Build/m7/Common/syscalls.o
_write                                            ../../Build/m7/Common/syscalls.o
                                                  /usr/bin/../lib/gcc/arm-none-eabi/12.3.1/../../../../arm-none-eabi/lib/thumb/v7e-m+fp/hard/libc_nano.a(libc_a-writer.o)
_write_r                                          /usr/bin/../lib/gcc/arm-none-eabi/12.3.1/../../../../arm-none-eabi/lib/thumb/v7e-m+fp/hard/libc_nano.a(libc_a-writer.o)
                                                  /usr/bin/../lib/gcc/arm-none-eabi/12.3.1/../../../../arm-none-eabi/lib/thumb/v7e-m+fp/hard/libc_nano.a(libc_a-stdio.o)
a                                                 ../../Build/m7/m7/main_m7.o
abort                                             /usr/bin/../lib/gcc/arm-none-eabi/12.3.1/../../../../arm-none-eabi/lib/thumb/v7e-m+fp/hard/libc_nano.a(libc_a-abort.o)
                                                  /usr/bin/../lib/gcc/arm-none-eabi/12.3.1/thumb/v7e-m+fp/hard/libgcc.a(pr-support.o)
                                                  /usr/bin/../lib/gcc/arm-none-eabi/12.3.1/../../../../arm-none-eabi/lib/thumb/v7e-m+fp/hard/libstdc++_nano.a(eh_term_handler.o)
                                                  /usr/bin/../lib/gcc/arm-none-eabi/12.3.1/../../../../arm-none-eabi/lib/thumb/v7e-m+fp/hard/libstdc++_nano.a(eh_terminate.o)
                                                  /usr/bin/../lib/gcc/arm-none-eabi/12.3.1/../../../../arm-none-eabi/lib/thumb/v7e-m+fp/hard/libstdc++_nano.a(eh_personality.o)
atexit                                            /usr/bin/../lib/gcc/arm-none-eabi/12.3.1/../../../../arm-none-eabi/lib/thumb/v7e-m+fp/hard/crt0.o
classMembersWithTags<pair<(InputPinProperties)0, bool>, pair<(InputPinProperties)1, int> >::classMembersWithTags() ../../Build/m7/m7/main_m7.o
environ                                           ../../Build/m7/Common/syscalls.o
errno                                             /usr/bin/../lib/gcc/arm-none-eabi/12.3.1/../../../../arm-none-eabi/lib/thumb/v7e-m+fp/hard/libc_nano.a(libc_a-reent.o)
                                                  /usr/bin/../lib/gcc/arm-none-eabi/12.3.1/../../../../arm-none-eabi/lib/thumb/v7e-m+fp/hard/libc_nano.a(libc_a-signalr.o)
                                                  /usr/bin/../lib/gcc/arm-none-eabi/12.3.1/../../../../arm-none-eabi/lib/thumb/v7e-m+fp/hard/libc_nano.a(libc_a-readr.o)
                                                  /usr/bin/../lib/gcc/arm-none-eabi/12.3.1/../../../../arm-none-eabi/lib/thumb/v7e-m+fp/hard/libc_nano.a(libc_a-lseekr.o)
                                                  /usr/bin/../lib/gcc/arm-none-eabi/12.3.1/../../../../arm-none-eabi/lib/thumb/v7e-m+fp/hard/libc_nano.a(libc_a-closer.o)
                                                  /usr/bin/../lib/gcc/arm-none-eabi/12.3.1/../../../../arm-none-eabi/lib/thumb/v7e-m+fp/hard/libc_nano.a(libc_a-writer.o)
                                                  /usr/bin/../lib/gcc/arm-none-eabi/12.3.1/../../../../arm-none-eabi/lib/thumb/v7e-m+fp/hard/libc_nano.a(libc_a-sbrkr.o)
exit                                              /usr/bin/../lib/gcc/arm-none-eabi/12.3.1/../../../../arm-none-eabi/lib/thumb/v7e-m+fp/hard/libc_nano.a(libc_a-exit.o)
                                                  /usr/bin/../lib/gcc/arm-none-eabi/12.3.1/../../../../arm-none-eabi/lib/thumb/v7e-m+fp/hard/crt0.o
fflush                                            /usr/bin/../lib/gcc/arm-none-eabi/12.3.1/../../../../arm-none-eabi/lib/thumb/v7e-m+fp/hard/libc_nano.a(libc_a-fflush.o)
free                                              /usr/bin/../lib/gcc/arm-none-eabi/12.3.1/../../../../arm-none-eabi/lib/thumb/v7e-m+fp/hard/libc_nano.a(libc_a-malloc.o)
                                                  /usr/bin/../lib/gcc/arm-none-eabi/12.3.1/../../../../arm-none-eabi/lib/thumb/v7e-m+fp/hard/libstdc++_nano.a(del_op.o)
g_pfnVectors                                      ../../Build/m7/Startup/startup_stm32h755xx.o
hardware_init_hook                                /usr/bin/../lib/gcc/arm-none-eabi/12.3.1/../../../../arm-none-eabi/lib/thumb/v7e-m+fp/hard/crt0.o
initialise_monitor_handles                        ../../Build/m7/Common/syscalls.o
main                                              ../../Build/m7/m7/main_m7.o
                                                  ../../Build/m7/Startup/startup_stm32h755xx.o
                                                  /usr/bin/../lib/gcc/arm-none-eabi/12.3.1/../../../../arm-none-eabi/lib/thumb/v7e-m+fp/hard/crt0.o
malloc                                            /usr/bin/../lib/gcc/arm-none-eabi/12.3.1/../../../../arm-none-eabi/lib/thumb/v7e-m+fp/hard/libc_nano.a(libc_a-malloc.o)
memcpy                                            /usr/bin/../lib/gcc/arm-none-eabi/12.3.1/../../../../arm-none-eabi/lib/thumb/v7e-m+fp/hard/libc_nano.a(libc_a-memcpy-stub.o)
                                                  /usr/bin/../lib/gcc/arm-none-eabi/12.3.1/thumb/v7e-m+fp/hard/libgcc.a(unwind-arm.o)
memset                                            /usr/bin/../lib/gcc/arm-none-eabi/12.3.1/../../../../arm-none-eabi/lib/thumb/v7e-m+fp/hard/libc_nano.a(libc_a-memset.o)
                                                  /usr/bin/../lib/gcc/arm-none-eabi/12.3.1/../../../../arm-none-eabi/lib/thumb/v7e-m+fp/hard/libc_nano.a(libc_a-findfp.o)
                                                  /usr/bin/../lib/gcc/arm-none-eabi/12.3.1/../../../../arm-none-eabi/lib/thumb/v7e-m+fp/hard/crt0.o
operator delete(void*)                            /usr/bin/../lib/gcc/arm-none-eabi/12.3.1/../../../../arm-none-eabi/lib/thumb/v7e-m+fp/hard/libstdc++_nano.a(del_op.o)
                                                  /usr/bin/../lib/gcc/arm-none-eabi/12.3.1/../../../../arm-none-eabi/lib/thumb/v7e-m+fp/hard/libstdc++_nano.a(del_ops.o)
operator delete(void*, unsigned int)              /usr/bin/../lib/gcc/arm-none-eabi/12.3.1/../../../../arm-none-eabi/lib/thumb/v7e-m+fp/hard/libstdc++_nano.a(del_ops.o)
                                                  /usr/bin/../lib/gcc/arm-none-eabi/12.3.1/../../../../arm-none-eabi/lib/thumb/v7e-m+fp/hard/libstdc++_nano.a(class_type_info.o)
                                                  /usr/bin/../lib/gcc/arm-none-eabi/12.3.1/../../../../arm-none-eabi/lib/thumb/v7e-m+fp/hard/libstdc++_nano.a(tinfo.o)
                                                  /usr/bin/../lib/gcc/arm-none-eabi/12.3.1/../../../../arm-none-eabi/lib/thumb/v7e-m+fp/hard/libstdc++_nano.a(si_class_type_info.o)
                                                  /usr/bin/../lib/gcc/arm-none-eabi/12.3.1/../../../../arm-none-eabi/lib/thumb/v7e-m+fp/hard/libstdc++_nano.a(eh_exception.o)
raise                                             /usr/bin/../lib/gcc/arm-none-eabi/12.3.1/../../../../arm-none-eabi/lib/thumb/v7e-m+fp/hard/libc_nano.a(libc_a-signal.o)
                                                  /usr/bin/../lib/gcc/arm-none-eabi/12.3.1/../../../../arm-none-eabi/lib/thumb/v7e-m+fp/hard/libc_nano.a(libc_a-abort.o)
restore_core_regs                                 /usr/bin/../lib/gcc/arm-none-eabi/12.3.1/thumb/v7e-m+fp/hard/libgcc.a(libunwind.o)
                                                  /usr/bin/../lib/gcc/arm-none-eabi/12.3.1/thumb/v7e-m+fp/hard/libgcc.a(unwind-arm.o)
signal                                            /usr/bin/../lib/gcc/arm-none-eabi/12.3.1/../../../../arm-none-eabi/lib/thumb/v7e-m+fp/hard/libc_nano.a(libc_a-signal.o)
software_init_hook                                /usr/bin/../lib/gcc/arm-none-eabi/12.3.1/../../../../arm-none-eabi/lib/thumb/v7e-m+fp/hard/crt0.o
std::_Head_base<0u, bool, false>::_Head_base()    ../../Build/m7/m7/main_m7.o
std::_Head_base<1u, int, false>::_Head_base()     ../../Build/m7/m7/main_m7.o
std::_Tuple_impl<0u, bool, int>::_Tuple_impl()    ../../Build/m7/m7/main_m7.o
std::_Tuple_impl<1u, int>::_Tuple_impl()          ../../Build/m7/m7/main_m7.o
std::bad_exception::what() const                  /usr/bin/../lib/gcc/arm-none-eabi/12.3.1/../../../../arm-none-eabi/lib/thumb/v7e-m+fp/hard/libstdc++_nano.a(eh_exception.o)
std::bad_exception::~bad_exception()              /usr/bin/../lib/gcc/arm-none-eabi/12.3.1/../../../../arm-none-eabi/lib/thumb/v7e-m+fp/hard/libstdc++_nano.a(eh_exception.o)
std::bad_exception::~bad_exception()              /usr/bin/../lib/gcc/arm-none-eabi/12.3.1/../../../../arm-none-eabi/lib/thumb/v7e-m+fp/hard/libstdc++_nano.a(eh_exception.o)
std::bad_exception::~bad_exception()              /usr/bin/../lib/gcc/arm-none-eabi/12.3.1/../../../../arm-none-eabi/lib/thumb/v7e-m+fp/hard/libstdc++_nano.a(eh_exception.o)
std::exception::what() const                      /usr/bin/../lib/gcc/arm-none-eabi/12.3.1/../../../../arm-none-eabi/lib/thumb/v7e-m+fp/hard/libstdc++_nano.a(eh_exception.o)
std::exception::~exception()                      /usr/bin/../lib/gcc/arm-none-eabi/12.3.1/../../../../arm-none-eabi/lib/thumb/v7e-m+fp/hard/libstdc++_nano.a(eh_exception.o)
std::exception::~exception()                      /usr/bin/../lib/gcc/arm-none-eabi/12.3.1/../../../../arm-none-eabi/lib/thumb/v7e-m+fp/hard/libstdc++_nano.a(eh_exception.o)
std::exception::~exception()                      /usr/bin/../lib/gcc/arm-none-eabi/12.3.1/../../../../arm-none-eabi/lib/thumb/v7e-m+fp/hard/libstdc++_nano.a(eh_exception.o)
std::get_terminate()                              /usr/bin/../lib/gcc/arm-none-eabi/12.3.1/../../../../arm-none-eabi/lib/thumb/v7e-m+fp/hard/libstdc++_nano.a(eh_terminate.o)
std::get_unexpected()                             /usr/bin/../lib/gcc/arm-none-eabi/12.3.1/../../../../arm-none-eabi/lib/thumb/v7e-m+fp/hard/libstdc++_nano.a(eh_terminate.o)
std::set_terminate(void (*)())                    /usr/bin/../lib/gcc/arm-none-eabi/12.3.1/../../../../arm-none-eabi/lib/thumb/v7e-m+fp/hard/libstdc++_nano.a(eh_terminate.o)
std::set_unexpected(void (*)())                   /usr/bin/../lib/gcc/arm-none-eabi/12.3.1/../../../../arm-none-eabi/lib/thumb/v7e-m+fp/hard/libstdc++_nano.a(eh_terminate.o)
std::terminate()                                  /usr/bin/../lib/gcc/arm-none-eabi/12.3.1/../../../../arm-none-eabi/lib/thumb/v7e-m+fp/hard/libstdc++_nano.a(eh_terminate.o)
                                                  /usr/bin/../lib/gcc/arm-none-eabi/12.3.1/../../../../arm-none-eabi/lib/thumb/v7e-m+fp/hard/libstdc++_nano.a(eh_catch.o)
                                                  /usr/bin/../lib/gcc/arm-none-eabi/12.3.1/../../../../arm-none-eabi/lib/thumb/v7e-m+fp/hard/libstdc++_nano.a(eh_call.o)
                                                  /usr/bin/../lib/gcc/arm-none-eabi/12.3.1/../../../../arm-none-eabi/lib/thumb/v7e-m+fp/hard/libstdc++_nano.a(eh_arm.o)
                                                  /usr/bin/../lib/gcc/arm-none-eabi/12.3.1/../../../../arm-none-eabi/lib/thumb/v7e-m+fp/hard/libstdc++_nano.a(eh_unex_handler.o)
                                                  /usr/bin/../lib/gcc/arm-none-eabi/12.3.1/../../../../arm-none-eabi/lib/thumb/v7e-m+fp/hard/libstdc++_nano.a(eh_personality.o)
std::tuple<bool, int>::tuple<true, true>()        ../../Build/m7/m7/main_m7.o
std::type_info::__do_catch(std::type_info const*, void**, unsigned int) const /usr/bin/../lib/gcc/arm-none-eabi/12.3.1/../../../../arm-none-eabi/lib/thumb/v7e-m+fp/hard/libstdc++_nano.a(tinfo.o)
std::type_info::__do_upcast(__cxxabiv1::__class_type_info const*, void**) const /usr/bin/../lib/gcc/arm-none-eabi/12.3.1/../../../../arm-none-eabi/lib/thumb/v7e-m+fp/hard/libstdc++_nano.a(tinfo.o)
std::type_info::__equal(std::type_info const&) const /usr/bin/../lib/gcc/arm-none-eabi/12.3.1/../../../../arm-none-eabi/lib/thumb/v7e-m+fp/hard/libstdc++_nano.a(tinfo.o)
std::type_info::__is_function_p() const           /usr/bin/../lib/gcc/arm-none-eabi/12.3.1/../../../../arm-none-eabi/lib/thumb/v7e-m+fp/hard/libstdc++_nano.a(tinfo.o)
                                                  /usr/bin/../lib/gcc/arm-none-eabi/12.3.1/../../../../arm-none-eabi/lib/thumb/v7e-m+fp/hard/libstdc++_nano.a(class_type_info.o)
                                                  /usr/bin/../lib/gcc/arm-none-eabi/12.3.1/../../../../arm-none-eabi/lib/thumb/v7e-m+fp/hard/libstdc++_nano.a(si_class_type_info.o)
std::type_info::__is_pointer_p() const            /usr/bin/../lib/gcc/arm-none-eabi/12.3.1/../../../../arm-none-eabi/lib/thumb/v7e-m+fp/hard/libstdc++_nano.a(tinfo.o)
                                                  /usr/bin/../lib/gcc/arm-none-eabi/12.3.1/../../../../arm-none-eabi/lib/thumb/v7e-m+fp/hard/libstdc++_nano.a(class_type_info.o)
                                                  /usr/bin/../lib/gcc/arm-none-eabi/12.3.1/../../../../arm-none-eabi/lib/thumb/v7e-m+fp/hard/libstdc++_nano.a(si_class_type_info.o)
std::type_info::operator==(std::type_info const&) const /usr/bin/../lib/gcc/arm-none-eabi/12.3.1/../../../../arm-none-eabi/lib/thumb/v7e-m+fp/hard/libstdc++_nano.a(tinfo.o)
                                                  /usr/bin/../lib/gcc/arm-none-eabi/12.3.1/../../../../arm-none-eabi/lib/thumb/v7e-m+fp/hard/libstdc++_nano.a(class_type_info.o)
                                                  /usr/bin/../lib/gcc/arm-none-eabi/12.3.1/../../../../arm-none-eabi/lib/thumb/v7e-m+fp/hard/libstdc++_nano.a(si_class_type_info.o)
std::type_info::~type_info()                      /usr/bin/../lib/gcc/arm-none-eabi/12.3.1/../../../../arm-none-eabi/lib/thumb/v7e-m+fp/hard/libstdc++_nano.a(tinfo.o)
std::type_info::~type_info()                      /usr/bin/../lib/gcc/arm-none-eabi/12.3.1/../../../../arm-none-eabi/lib/thumb/v7e-m+fp/hard/libstdc++_nano.a(tinfo.o)
std::type_info::~type_info()                      /usr/bin/../lib/gcc/arm-none-eabi/12.3.1/../../../../arm-none-eabi/lib/thumb/v7e-m+fp/hard/libstdc++_nano.a(tinfo.o)
                                                  /usr/bin/../lib/gcc/arm-none-eabi/12.3.1/../../../../arm-none-eabi/lib/thumb/v7e-m+fp/hard/libstdc++_nano.a(class_type_info.o)
std::uncaught_exception()                         /usr/bin/../lib/gcc/arm-none-eabi/12.3.1/../../../../arm-none-eabi/lib/thumb/v7e-m+fp/hard/libstdc++_nano.a(eh_catch.o)
std::uncaught_exceptions()                        /usr/bin/../lib/gcc/arm-none-eabi/12.3.1/../../../../arm-none-eabi/lib/thumb/v7e-m+fp/hard/libstdc++_nano.a(eh_catch.o)
std::unexpected()                                 /usr/bin/../lib/gcc/arm-none-eabi/12.3.1/../../../../arm-none-eabi/lib/thumb/v7e-m+fp/hard/libstdc++_nano.a(eh_terminate.o)
                                                  /usr/bin/../lib/gcc/arm-none-eabi/12.3.1/../../../../arm-none-eabi/lib/thumb/v7e-m+fp/hard/libstdc++_nano.a(eh_call.o)
                                                  /usr/bin/../lib/gcc/arm-none-eabi/12.3.1/../../../../arm-none-eabi/lib/thumb/v7e-m+fp/hard/libstdc++_nano.a(eh_personality.o)
strcmp                                            /usr/bin/../lib/gcc/arm-none-eabi/12.3.1/../../../../arm-none-eabi/lib/thumb/v7e-m+fp/hard/libc_nano.a(libc_a-strcmp.o)
                                                  /usr/bin/../lib/gcc/arm-none-eabi/12.3.1/../../../../arm-none-eabi/lib/thumb/v7e-m+fp/hard/libstdc++_nano.a(tinfo.o)
transaction clone for std::bad_exception::what() const /usr/bin/../lib/gcc/arm-none-eabi/12.3.1/../../../../arm-none-eabi/lib/thumb/v7e-m+fp/hard/libstdc++_nano.a(eh_exception.o)
transaction clone for std::bad_exception::~bad_exception() const /usr/bin/../lib/gcc/arm-none-eabi/12.3.1/../../../../arm-none-eabi/lib/thumb/v7e-m+fp/hard/libstdc++_nano.a(eh_exception.o)
transaction clone for std::exception::what() const /usr/bin/../lib/gcc/arm-none-eabi/12.3.1/../../../../arm-none-eabi/lib/thumb/v7e-m+fp/hard/libstdc++_nano.a(eh_exception.o)
transaction clone for std::exception::~exception() const /usr/bin/../lib/gcc/arm-none-eabi/12.3.1/../../../../arm-none-eabi/lib/thumb/v7e-m+fp/hard/libstdc++_nano.a(eh_exception.o)
typeinfo for __cxxabiv1::__class_type_info        /usr/bin/../lib/gcc/arm-none-eabi/12.3.1/../../../../arm-none-eabi/lib/thumb/v7e-m+fp/hard/libstdc++_nano.a(class_type_info.o)
                                                  /usr/bin/../lib/gcc/arm-none-eabi/12.3.1/../../../../arm-none-eabi/lib/thumb/v7e-m+fp/hard/libstdc++_nano.a(si_class_type_info.o)
typeinfo for __cxxabiv1::__forced_unwind          /usr/bin/../lib/gcc/arm-none-eabi/12.3.1/../../../../arm-none-eabi/lib/thumb/v7e-m+fp/hard/libstdc++_nano.a(eh_exception.o)
                                                  /usr/bin/../lib/gcc/arm-none-eabi/12.3.1/../../../../arm-none-eabi/lib/thumb/v7e-m+fp/hard/libstdc++_nano.a(eh_arm.o)
typeinfo for __cxxabiv1::__foreign_exception      /usr/bin/../lib/gcc/arm-none-eabi/12.3.1/../../../../arm-none-eabi/lib/thumb/v7e-m+fp/hard/libstdc++_nano.a(eh_exception.o)
                                                  /usr/bin/../lib/gcc/arm-none-eabi/12.3.1/../../../../arm-none-eabi/lib/thumb/v7e-m+fp/hard/libstdc++_nano.a(eh_arm.o)
typeinfo for __cxxabiv1::__si_class_type_info     /usr/bin/../lib/gcc/arm-none-eabi/12.3.1/../../../../arm-none-eabi/lib/thumb/v7e-m+fp/hard/libstdc++_nano.a(si_class_type_info.o)
typeinfo for std::bad_exception                   /usr/bin/../lib/gcc/arm-none-eabi/12.3.1/../../../../arm-none-eabi/lib/thumb/v7e-m+fp/hard/libstdc++_nano.a(eh_exception.o)
typeinfo for std::exception                       /usr/bin/../lib/gcc/arm-none-eabi/12.3.1/../../../../arm-none-eabi/lib/thumb/v7e-m+fp/hard/libstdc++_nano.a(eh_exception.o)
typeinfo for std::type_info                       /usr/bin/../lib/gcc/arm-none-eabi/12.3.1/../../../../arm-none-eabi/lib/thumb/v7e-m+fp/hard/libstdc++_nano.a(tinfo.o)
                                                  /usr/bin/../lib/gcc/arm-none-eabi/12.3.1/../../../../arm-none-eabi/lib/thumb/v7e-m+fp/hard/libstdc++_nano.a(class_type_info.o)
typeinfo name for __cxxabiv1::__class_type_info   /usr/bin/../lib/gcc/arm-none-eabi/12.3.1/../../../../arm-none-eabi/lib/thumb/v7e-m+fp/hard/libstdc++_nano.a(class_type_info.o)
typeinfo name for __cxxabiv1::__forced_unwind     /usr/bin/../lib/gcc/arm-none-eabi/12.3.1/../../../../arm-none-eabi/lib/thumb/v7e-m+fp/hard/libstdc++_nano.a(eh_exception.o)
typeinfo name for __cxxabiv1::__foreign_exception /usr/bin/../lib/gcc/arm-none-eabi/12.3.1/../../../../arm-none-eabi/lib/thumb/v7e-m+fp/hard/libstdc++_nano.a(eh_exception.o)
typeinfo name for __cxxabiv1::__si_class_type_info /usr/bin/../lib/gcc/arm-none-eabi/12.3.1/../../../../arm-none-eabi/lib/thumb/v7e-m+fp/hard/libstdc++_nano.a(si_class_type_info.o)
typeinfo name for std::bad_exception              /usr/bin/../lib/gcc/arm-none-eabi/12.3.1/../../../../arm-none-eabi/lib/thumb/v7e-m+fp/hard/libstdc++_nano.a(eh_exception.o)
typeinfo name for std::exception                  /usr/bin/../lib/gcc/arm-none-eabi/12.3.1/../../../../arm-none-eabi/lib/thumb/v7e-m+fp/hard/libstdc++_nano.a(eh_exception.o)
typeinfo name for std::type_info                  /usr/bin/../lib/gcc/arm-none-eabi/12.3.1/../../../../arm-none-eabi/lib/thumb/v7e-m+fp/hard/libstdc++_nano.a(tinfo.o)
vtable for InputPinHandler<unsigned long volatile* [2]> ../../Build/m7/m7/main_m7.o
vtable for PeripheralHandlerBase<Utils::TypeList<pair<(InputPinProperties)0, bool>, pair<(InputPinProperties)1, int> >, unsigned long volatile* [2], InputPinHandler<unsigned long volatile* [2]> > ../../Build/m7/m7/main_m7.o
vtable for __cxxabiv1::__class_type_info          /usr/bin/../lib/gcc/arm-none-eabi/12.3.1/../../../../arm-none-eabi/lib/thumb/v7e-m+fp/hard/libstdc++_nano.a(class_type_info.o)
                                                  /usr/bin/../lib/gcc/arm-none-eabi/12.3.1/../../../../arm-none-eabi/lib/thumb/v7e-m+fp/hard/libstdc++_nano.a(tinfo.o)
                                                  /usr/bin/../lib/gcc/arm-none-eabi/12.3.1/../../../../arm-none-eabi/lib/thumb/v7e-m+fp/hard/libstdc++_nano.a(eh_exception.o)
vtable for __cxxabiv1::__forced_unwind            /usr/bin/../lib/gcc/arm-none-eabi/12.3.1/../../../../arm-none-eabi/lib/thumb/v7e-m+fp/hard/libstdc++_nano.a(eh_exception.o)
vtable for __cxxabiv1::__foreign_exception        /usr/bin/../lib/gcc/arm-none-eabi/12.3.1/../../../../arm-none-eabi/lib/thumb/v7e-m+fp/hard/libstdc++_nano.a(eh_exception.o)
vtable for __cxxabiv1::__si_class_type_info       /usr/bin/../lib/gcc/arm-none-eabi/12.3.1/../../../../arm-none-eabi/lib/thumb/v7e-m+fp/hard/libstdc++_nano.a(si_class_type_info.o)
                                                  /usr/bin/../lib/gcc/arm-none-eabi/12.3.1/../../../../arm-none-eabi/lib/thumb/v7e-m+fp/hard/libstdc++_nano.a(class_type_info.o)
                                                  /usr/bin/../lib/gcc/arm-none-eabi/12.3.1/../../../../arm-none-eabi/lib/thumb/v7e-m+fp/hard/libstdc++_nano.a(eh_exception.o)
vtable for std::bad_exception                     /usr/bin/../lib/gcc/arm-none-eabi/12.3.1/../../../../arm-none-eabi/lib/thumb/v7e-m+fp/hard/libstdc++_nano.a(eh_exception.o)
vtable for std::exception                         /usr/bin/../lib/gcc/arm-none-eabi/12.3.1/../../../../arm-none-eabi/lib/thumb/v7e-m+fp/hard/libstdc++_nano.a(eh_exception.o)
vtable for std::type_info                         /usr/bin/../lib/gcc/arm-none-eabi/12.3.1/../../../../arm-none-eabi/lib/thumb/v7e-m+fp/hard/libstdc++_nano.a(tinfo.o)
